
bm_tracepoint:     file format elf64-x86-64


Disassembly of section .text:

000000000000bdf0 <_ZN9benchmark12_GLOBAL__N_1L15DiagnoseAndExitEPKc>:
    bdf0:	53                   	push   %rbx
    bdf1:	48 8d 35 48 a0 03 00 	lea    0x3a048(%rip),%rsi        # 45e40 <_ZN9benchmark12_GLOBAL__N_1L11kBigSIUnitsE+0x2a0>
    bdf8:	48 89 fb             	mov    %rdi,%rbx
    bdfb:	48 8d 3d 3e 3d 24 00 	lea    0x243d3e(%rip),%rdi        # 24fb40 <_ZSt4cerr@@GLIBCXX_3.4>
    be02:	ba 07 00 00 00       	mov    $0x7,%edx
    be07:	e8 54 fc ff ff       	callq  ba60 <_ZSt16__ostream_insertIcSt11char_traitsIcEERSt13basic_ostreamIT_T0_ES6_PKS3_l@plt>
    be0c:	48 8d 3d 2d 3d 24 00 	lea    0x243d2d(%rip),%rdi        # 24fb40 <_ZSt4cerr@@GLIBCXX_3.4>
    be13:	48 89 de             	mov    %rbx,%rsi
    be16:	e8 a5 fb ff ff       	callq  b9c0 <_ZStlsISt11char_traitsIcEERSt13basic_ostreamIcT_ES5_PKc@plt>
    be1b:	48 89 c7             	mov    %rax,%rdi
    be1e:	e8 4d f9 ff ff       	callq  b770 <_ZSt4endlIcSt11char_traitsIcEERSt13basic_ostreamIT_T0_ES6_@plt>
    be23:	bf 01 00 00 00       	mov    $0x1,%edi
    be28:	e8 73 fc ff ff       	callq  baa0 <exit@plt>
    be2d:	0f 1f 00             	nopl   (%rax)

000000000000be30 <_GLOBAL__sub_I_bm_tracepoint.cpp>:
    be30:	41 56                	push   %r14
    be32:	53                   	push   %rbx
    be33:	50                   	push   %rax
    be34:	e8 a7 1b 00 00       	callq  d9e0 <_ZN9benchmark8internal17InitializeStreamsEv>
    be39:	bf c8 00 00 00       	mov    $0xc8,%edi
    be3e:	e8 8d fb ff ff       	callq  b9d0 <_Znwm@plt>
    be43:	48 89 c3             	mov    %rax,%rbx
    be46:	48 8d 35 b7 7d 03 00 	lea    0x37db7(%rip),%rsi        # 43c04 <_IO_stdin_used+0x4>
    be4d:	48 89 df             	mov    %rbx,%rdi
    be50:	e8 7b b1 00 00       	callq  16fd0 <_ZN9benchmark8internal9BenchmarkC1EPKc>
    be55:	4c 8d 35 dc 24 24 00 	lea    0x2424dc(%rip),%r14        # 24e338 <_ZTVN9benchmark8internal17FunctionBenchmarkE>
    be5c:	49 83 c6 10          	add    $0x10,%r14
    be60:	4c 89 33             	mov    %r14,(%rbx)
    be63:	48 8d 05 46 08 00 00 	lea    0x846(%rip),%rax        # c6b0 <_ZL17bm_no_tracepointsRN9benchmark5StateE>
    be6a:	48 89 83 c0 00 00 00 	mov    %rax,0xc0(%rbx)
    be71:	48 89 df             	mov    %rbx,%rdi
    be74:	e8 17 b5 00 00       	callq  17390 <_ZN9benchmark8internal25RegisterBenchmarkInternalEPNS0_9BenchmarkE>
    be79:	48 89 05 d8 3d 24 00 	mov    %rax,0x243dd8(%rip)        # 24fc58 <_ZL29_benchmark_2bm_no_tracepoints>
    be80:	bf c8 00 00 00       	mov    $0xc8,%edi
    be85:	e8 46 fb ff ff       	callq  b9d0 <_Znwm@plt>
    be8a:	48 89 c3             	mov    %rax,%rbx
    be8d:	48 8d 35 82 7d 03 00 	lea    0x37d82(%rip),%rsi        # 43c16 <_IO_stdin_used+0x16>
    be94:	48 89 df             	mov    %rbx,%rdi
    be97:	e8 34 b1 00 00       	callq  16fd0 <_ZN9benchmark8internal9BenchmarkC1EPKc>
    be9c:	4c 89 33             	mov    %r14,(%rbx)
    be9f:	48 8d 05 ca 08 00 00 	lea    0x8ca(%rip),%rax        # c770 <_ZL19bm_with_tracepointsRN9benchmark5StateE>
    bea6:	48 89 83 c0 00 00 00 	mov    %rax,0xc0(%rbx)
    bead:	48 89 df             	mov    %rbx,%rdi
    beb0:	e8 db b4 00 00       	callq  17390 <_ZN9benchmark8internal25RegisterBenchmarkInternalEPNS0_9BenchmarkE>
    beb5:	48 89 05 a4 3d 24 00 	mov    %rax,0x243da4(%rip)        # 24fc60 <_ZL31_benchmark_3bm_with_tracepoints>
    bebc:	48 83 c4 08          	add    $0x8,%rsp
    bec0:	5b                   	pop    %rbx
    bec1:	41 5e                	pop    %r14
    bec3:	c3                   	retq   
    bec4:	eb 00                	jmp    bec6 <_GLOBAL__sub_I_bm_tracepoint.cpp+0x96>
    bec6:	49 89 c6             	mov    %rax,%r14
    bec9:	48 89 df             	mov    %rbx,%rdi
    becc:	e8 cf fa ff ff       	callq  b9a0 <_ZdlPv@plt>
    bed1:	4c 89 f7             	mov    %r14,%rdi
    bed4:	e8 47 fe ff ff       	callq  bd20 <_Unwind_Resume@plt>
    bed9:	0f 1f 80 00 00 00 00 	nopl   0x0(%rax)

000000000000bee0 <_ZNSt7__cxx1112basic_stringIcSt11char_traitsIcESaIcEEC2EPKcRKS3_.isra.108>:
    bee0:	41 55                	push   %r13
    bee2:	41 54                	push   %r12
    bee4:	4c 8d 67 10          	lea    0x10(%rdi),%r12
    bee8:	55                   	push   %rbp
    bee9:	53                   	push   %rbx
    beea:	48 89 fb             	mov    %rdi,%rbx
    beed:	49 89 f5             	mov    %rsi,%r13
    bef0:	48 83 ec 18          	sub    $0x18,%rsp
    bef4:	4c 89 27             	mov    %r12,(%rdi)
    bef7:	48 89 f7             	mov    %rsi,%rdi
    befa:	64 48 8b 04 25 28 00 	mov    %fs:0x28,%rax
    bf01:	00 00 
    bf03:	48 89 44 24 08       	mov    %rax,0x8(%rsp)
    bf08:	31 c0                	xor    %eax,%eax
    bf0a:	e8 11 f8 ff ff       	callq  b720 <strlen@plt>
    bf0f:	48 83 f8 0f          	cmp    $0xf,%rax
    bf13:	48 89 c5             	mov    %rax,%rbp
    bf16:	48 89 04 24          	mov    %rax,(%rsp)
    bf1a:	77 38                	ja     bf54 <_ZNSt7__cxx1112basic_stringIcSt11char_traitsIcESaIcEEC2EPKcRKS3_.isra.108+0x74>
    bf1c:	48 83 f8 01          	cmp    $0x1,%rax
    bf20:	75 5d                	jne    bf7f <_ZNSt7__cxx1112basic_stringIcSt11char_traitsIcESaIcEEC2EPKcRKS3_.isra.108+0x9f>
    bf22:	41 0f b6 45 00       	movzbl 0x0(%r13),%eax
    bf27:	88 43 10             	mov    %al,0x10(%rbx)
    bf2a:	48 8b 04 24          	mov    (%rsp),%rax
    bf2e:	48 8b 13             	mov    (%rbx),%rdx
    bf31:	48 89 43 08          	mov    %rax,0x8(%rbx)
    bf35:	c6 04 02 00          	movb   $0x0,(%rdx,%rax,1)
    bf39:	48 8b 44 24 08       	mov    0x8(%rsp),%rax
    bf3e:	64 48 33 04 25 28 00 	xor    %fs:0x28,%rax
    bf45:	00 00 
    bf47:	75 3d                	jne    bf86 <_ZNSt7__cxx1112basic_stringIcSt11char_traitsIcESaIcEEC2EPKcRKS3_.isra.108+0xa6>
    bf49:	48 83 c4 18          	add    $0x18,%rsp
    bf4d:	5b                   	pop    %rbx
    bf4e:	5d                   	pop    %rbp
    bf4f:	41 5c                	pop    %r12
    bf51:	41 5d                	pop    %r13
    bf53:	c3                   	retq   
    bf54:	48 89 e6             	mov    %rsp,%rsi
    bf57:	31 d2                	xor    %edx,%edx
    bf59:	48 89 df             	mov    %rbx,%rdi
    bf5c:	e8 cf fd ff ff       	callq  bd30 <_ZNSt7__cxx1112basic_stringIcSt11char_traitsIcESaIcEE9_M_createERmm@plt>
    bf61:	49 89 c4             	mov    %rax,%r12
    bf64:	48 89 03             	mov    %rax,(%rbx)
    bf67:	48 8b 04 24          	mov    (%rsp),%rax
    bf6b:	48 89 43 10          	mov    %rax,0x10(%rbx)
    bf6f:	48 89 ea             	mov    %rbp,%rdx
    bf72:	4c 89 ee             	mov    %r13,%rsi
    bf75:	4c 89 e7             	mov    %r12,%rdi
    bf78:	e8 83 f9 ff ff       	callq  b900 <memcpy@plt>
    bf7d:	eb ab                	jmp    bf2a <_ZNSt7__cxx1112basic_stringIcSt11char_traitsIcESaIcEEC2EPKcRKS3_.isra.108+0x4a>
    bf7f:	48 85 c0             	test   %rax,%rax
    bf82:	74 a6                	je     bf2a <_ZNSt7__cxx1112basic_stringIcSt11char_traitsIcESaIcEEC2EPKcRKS3_.isra.108+0x4a>
    bf84:	eb e9                	jmp    bf6f <_ZNSt7__cxx1112basic_stringIcSt11char_traitsIcESaIcEEC2EPKcRKS3_.isra.108+0x8f>
    bf86:	e8 b5 fa ff ff       	callq  ba40 <__stack_chk_fail@plt>
    bf8b:	0f 1f 44 00 00       	nopl   0x0(%rax,%rax,1)

000000000000bf90 <_GLOBAL__sub_I_FLAGS_benchmark_list_tests>:
    bf90:	53                   	push   %rbx
    bf91:	e8 4a 1a 00 00       	callq  d9e0 <_ZN9benchmark8internal17InitializeStreamsEv>
    bf96:	48 8d 3d d4 3d 24 00 	lea    0x243dd4(%rip),%rdi        # 24fd71 <_ZStL8__ioinit>
    bf9d:	e8 9e fc ff ff       	callq  bc40 <_ZNSt8ios_base4InitC1Ev@plt>
    bfa2:	48 8b 3d 47 30 24 00 	mov    0x243047(%rip),%rdi        # 24eff0 <_ZNSt8ios_base4InitD1Ev@GLIBCXX_3.4>
    bfa9:	48 8d 15 b8 34 24 00 	lea    0x2434b8(%rip),%rdx        # 24f468 <__dso_handle>
    bfb0:	48 8d 35 ba 3d 24 00 	lea    0x243dba(%rip),%rsi        # 24fd71 <_ZStL8__ioinit>
    bfb7:	e8 74 f9 ff ff       	callq  b930 <__cxa_atexit@plt>
    bfbc:	48 8d 35 e6 97 03 00 	lea    0x397e6(%rip),%rsi        # 457a9 <._91+0xa9>
    bfc3:	48 8d 3d 76 3d 24 00 	lea    0x243d76(%rip),%rdi        # 24fd40 <_Z22FLAGS_benchmark_filterB5cxx11>
    bfca:	e8 11 ff ff ff       	callq  bee0 <_ZNSt7__cxx1112basic_stringIcSt11char_traitsIcESaIcEEC2EPKcRKS3_.isra.108>
    bfcf:	48 8b 1d da 2f 24 00 	mov    0x242fda(%rip),%rbx        # 24efb0 <_ZNSt7__cxx1112basic_stringIcSt11char_traitsIcESaIcEED1Ev@GLIBCXX_3.4.21>
    bfd6:	48 8d 15 8b 34 24 00 	lea    0x24348b(%rip),%rdx        # 24f468 <__dso_handle>
    bfdd:	48 8d 35 5c 3d 24 00 	lea    0x243d5c(%rip),%rsi        # 24fd40 <_Z22FLAGS_benchmark_filterB5cxx11>
    bfe4:	48 89 df             	mov    %rbx,%rdi
    bfe7:	e8 44 f9 ff ff       	callq  b930 <__cxa_atexit@plt>
    bfec:	48 8d 35 9d 7d 03 00 	lea    0x37d9d(%rip),%rsi        # 43d90 <_ZTSFvPKvRKN8dyntrace6tracer4regsEE+0x20>
    bff3:	48 8d 3d 06 3d 24 00 	lea    0x243d06(%rip),%rdi        # 24fd00 <_Z22FLAGS_benchmark_formatB5cxx11>
    bffa:	e8 e1 fe ff ff       	callq  bee0 <_ZNSt7__cxx1112basic_stringIcSt11char_traitsIcESaIcEEC2EPKcRKS3_.isra.108>
    bfff:	48 8d 15 62 34 24 00 	lea    0x243462(%rip),%rdx        # 24f468 <__dso_handle>
    c006:	48 8d 35 f3 3c 24 00 	lea    0x243cf3(%rip),%rsi        # 24fd00 <_Z22FLAGS_benchmark_formatB5cxx11>
    c00d:	48 89 df             	mov    %rbx,%rdi
    c010:	e8 1b f9 ff ff       	callq  b930 <__cxa_atexit@plt>
    c015:	48 8d 35 7c 7d 03 00 	lea    0x37d7c(%rip),%rsi        # 43d98 <_ZTSFvPKvRKN8dyntrace6tracer4regsEE+0x28>
    c01c:	48 8d 3d bd 3c 24 00 	lea    0x243cbd(%rip),%rdi        # 24fce0 <_Z26FLAGS_benchmark_out_formatB5cxx11>
    c023:	e8 b8 fe ff ff       	callq  bee0 <_ZNSt7__cxx1112basic_stringIcSt11char_traitsIcESaIcEEC2EPKcRKS3_.isra.108>
    c028:	48 8d 15 39 34 24 00 	lea    0x243439(%rip),%rdx        # 24f468 <__dso_handle>
    c02f:	48 8d 35 aa 3c 24 00 	lea    0x243caa(%rip),%rsi        # 24fce0 <_Z26FLAGS_benchmark_out_formatB5cxx11>
    c036:	48 89 df             	mov    %rbx,%rdi
    c039:	e8 f2 f8 ff ff       	callq  b930 <__cxa_atexit@plt>
    c03e:	48 8d 35 36 98 03 00 	lea    0x39836(%rip),%rsi        # 4587b <_ZTSN9benchmark15ConsoleReporterE+0x3b>
    c045:	48 8d 3d 74 3c 24 00 	lea    0x243c74(%rip),%rdi        # 24fcc0 <_Z19FLAGS_benchmark_outB5cxx11>
    c04c:	e8 8f fe ff ff       	callq  bee0 <_ZNSt7__cxx1112basic_stringIcSt11char_traitsIcESaIcEEC2EPKcRKS3_.isra.108>
    c051:	48 8d 15 10 34 24 00 	lea    0x243410(%rip),%rdx        # 24f468 <__dso_handle>
    c058:	48 8d 35 61 3c 24 00 	lea    0x243c61(%rip),%rsi        # 24fcc0 <_Z19FLAGS_benchmark_outB5cxx11>
    c05f:	48 89 df             	mov    %rbx,%rdi
    c062:	e8 c9 f8 ff ff       	callq  b930 <__cxa_atexit@plt>
    c067:	48 8d 35 4b 7d 03 00 	lea    0x37d4b(%rip),%rsi        # 43db9 <_ZTSFvPKvRKN8dyntrace6tracer4regsEE+0x49>
    c06e:	48 8d 3d 2b 3c 24 00 	lea    0x243c2b(%rip),%rdi        # 24fca0 <_Z21FLAGS_benchmark_colorB5cxx11>
    c075:	e8 66 fe ff ff       	callq  bee0 <_ZNSt7__cxx1112basic_stringIcSt11char_traitsIcESaIcEEC2EPKcRKS3_.isra.108>
    c07a:	48 89 df             	mov    %rbx,%rdi
    c07d:	48 8d 15 e4 33 24 00 	lea    0x2433e4(%rip),%rdx        # 24f468 <__dso_handle>
    c084:	48 8d 35 15 3c 24 00 	lea    0x243c15(%rip),%rsi        # 24fca0 <_Z21FLAGS_benchmark_colorB5cxx11>
    c08b:	5b                   	pop    %rbx
    c08c:	e9 9f f8 ff ff       	jmpq   b930 <__cxa_atexit@plt>
    c091:	66 2e 0f 1f 84 00 00 	nopw   %cs:0x0(%rax,%rax,1)
    c098:	00 00 00 
    c09b:	0f 1f 44 00 00       	nopl   0x0(%rax,%rax,1)

000000000000c0a0 <_GLOBAL__sub_I__ZN9benchmark8internal17BenchmarkFamilies11GetInstanceEv>:
    c0a0:	48 83 ec 08          	sub    $0x8,%rsp
    c0a4:	e8 37 19 00 00       	callq  d9e0 <_ZN9benchmark8internal17InitializeStreamsEv>
    c0a9:	48 8d 3d 50 3d 24 00 	lea    0x243d50(%rip),%rdi        # 24fe00 <_ZStL8__ioinit>
    c0b0:	e8 8b fb ff ff       	callq  bc40 <_ZNSt8ios_base4InitC1Ev@plt>
    c0b5:	48 8b 3d 34 2f 24 00 	mov    0x242f34(%rip),%rdi        # 24eff0 <_ZNSt8ios_base4InitD1Ev@GLIBCXX_3.4>
    c0bc:	48 8d 15 a5 33 24 00 	lea    0x2433a5(%rip),%rdx        # 24f468 <__dso_handle>
    c0c3:	48 8d 35 36 3d 24 00 	lea    0x243d36(%rip),%rsi        # 24fe00 <_ZStL8__ioinit>
    c0ca:	48 83 c4 08          	add    $0x8,%rsp
    c0ce:	e9 5d f8 ff ff       	jmpq   b930 <__cxa_atexit@plt>
    c0d3:	66 2e 0f 1f 84 00 00 	nopw   %cs:0x0(%rax,%rax,1)
    c0da:	00 00 00 
    c0dd:	0f 1f 00             	nopl   (%rax)

000000000000c0e0 <_GLOBAL__sub_I__ZN9benchmark12FormatStringB5cxx11EPKcP13__va_list_tag>:
    c0e0:	48 8d 3d 5a 3d 24 00 	lea    0x243d5a(%rip),%rdi        # 24fe41 <_ZStL8__ioinit>
    c0e7:	48 83 ec 08          	sub    $0x8,%rsp
    c0eb:	e8 50 fb ff ff       	callq  bc40 <_ZNSt8ios_base4InitC1Ev@plt>
    c0f0:	48 8b 3d f9 2e 24 00 	mov    0x242ef9(%rip),%rdi        # 24eff0 <_ZNSt8ios_base4InitD1Ev@GLIBCXX_3.4>
    c0f7:	48 8d 15 6a 33 24 00 	lea    0x24336a(%rip),%rdx        # 24f468 <__dso_handle>
    c0fe:	48 8d 35 3c 3d 24 00 	lea    0x243d3c(%rip),%rsi        # 24fe41 <_ZStL8__ioinit>
    c105:	e8 26 f8 ff ff       	callq  b930 <__cxa_atexit@plt>
    c10a:	48 83 c4 08          	add    $0x8,%rsp
    c10e:	e9 cd 18 00 00       	jmpq   d9e0 <_ZN9benchmark8internal17InitializeStreamsEv>
    c113:	66 2e 0f 1f 84 00 00 	nopw   %cs:0x0(%rax,%rax,1)
    c11a:	00 00 00 
    c11d:	0f 1f 00             	nopl   (%rax)

000000000000c120 <_GLOBAL__sub_I__ZN9benchmark10ParseInt32ERKNSt7__cxx1112basic_stringIcSt11char_traitsIcESaIcEEEPKcPi>:
    c120:	48 8d 3d 1b 3d 24 00 	lea    0x243d1b(%rip),%rdi        # 24fe42 <_ZStL8__ioinit>
    c127:	48 83 ec 08          	sub    $0x8,%rsp
    c12b:	e8 10 fb ff ff       	callq  bc40 <_ZNSt8ios_base4InitC1Ev@plt>
    c130:	48 8b 3d b9 2e 24 00 	mov    0x242eb9(%rip),%rdi        # 24eff0 <_ZNSt8ios_base4InitD1Ev@GLIBCXX_3.4>
    c137:	48 8d 15 2a 33 24 00 	lea    0x24332a(%rip),%rdx        # 24f468 <__dso_handle>
    c13e:	48 8d 35 fd 3c 24 00 	lea    0x243cfd(%rip),%rsi        # 24fe42 <_ZStL8__ioinit>
    c145:	48 83 c4 08          	add    $0x8,%rsp
    c149:	e9 e2 f7 ff ff       	jmpq   b930 <__cxa_atexit@plt>
    c14e:	66 90                	xchg   %ax,%ax

000000000000c150 <_GLOBAL__sub_I__ZN9benchmark12FittingCurveENS_4BigOE>:
    c150:	48 83 ec 08          	sub    $0x8,%rsp
    c154:	e8 87 18 00 00       	callq  d9e0 <_ZN9benchmark8internal17InitializeStreamsEv>
    c159:	48 8d 3d e3 3c 24 00 	lea    0x243ce3(%rip),%rdi        # 24fe43 <_ZStL8__ioinit>
    c160:	e8 db fa ff ff       	callq  bc40 <_ZNSt8ios_base4InitC1Ev@plt>
    c165:	48 8b 3d 84 2e 24 00 	mov    0x242e84(%rip),%rdi        # 24eff0 <_ZNSt8ios_base4InitD1Ev@GLIBCXX_3.4>
    c16c:	48 8d 15 f5 32 24 00 	lea    0x2432f5(%rip),%rdx        # 24f468 <__dso_handle>
    c173:	48 8d 35 c9 3c 24 00 	lea    0x243cc9(%rip),%rsi        # 24fe43 <_ZStL8__ioinit>
    c17a:	48 83 c4 08          	add    $0x8,%rsp
    c17e:	e9 ad f7 ff ff       	jmpq   b930 <__cxa_atexit@plt>
    c183:	66 2e 0f 1f 84 00 00 	nopw   %cs:0x0(%rax,%rax,1)
    c18a:	00 00 00 
    c18d:	0f 1f 00             	nopl   (%rax)

000000000000c190 <_GLOBAL__sub_I__ZN9benchmark15ConsoleReporter13ReportContextERKNS_17BenchmarkReporter7ContextE>:
    c190:	48 83 ec 08          	sub    $0x8,%rsp
    c194:	e8 47 18 00 00       	callq  d9e0 <_ZN9benchmark8internal17InitializeStreamsEv>
    c199:	48 8d 3d a4 3c 24 00 	lea    0x243ca4(%rip),%rdi        # 24fe44 <_ZStL8__ioinit>
    c1a0:	e8 9b fa ff ff       	callq  bc40 <_ZNSt8ios_base4InitC1Ev@plt>
    c1a5:	48 8b 3d 44 2e 24 00 	mov    0x242e44(%rip),%rdi        # 24eff0 <_ZNSt8ios_base4InitD1Ev@GLIBCXX_3.4>
    c1ac:	48 8d 15 b5 32 24 00 	lea    0x2432b5(%rip),%rdx        # 24f468 <__dso_handle>
    c1b3:	48 8d 35 8a 3c 24 00 	lea    0x243c8a(%rip),%rsi        # 24fe44 <_ZStL8__ioinit>
    c1ba:	48 83 c4 08          	add    $0x8,%rsp
    c1be:	e9 6d f7 ff ff       	jmpq   b930 <__cxa_atexit@plt>
    c1c3:	66 2e 0f 1f 84 00 00 	nopw   %cs:0x0(%rax,%rax,1)
    c1ca:	00 00 00 
    c1cd:	0f 1f 00             	nopl   (%rax)

000000000000c1d0 <_GLOBAL__sub_I__ZN9benchmark8internal6FinishERKNS_7CounterEdd>:
    c1d0:	e9 0b 18 00 00       	jmpq   d9e0 <_ZN9benchmark8internal17InitializeStreamsEv>
    c1d5:	66 2e 0f 1f 84 00 00 	nopw   %cs:0x0(%rax,%rax,1)
    c1dc:	00 00 00 
    c1df:	90                   	nop

000000000000c1e0 <_Z41__static_initialization_and_destruction_0ii.constprop.84>:
    c1e0:	41 54                	push   %r12
    c1e2:	55                   	push   %rbp
    c1e3:	53                   	push   %rbx
    c1e4:	48 81 ec 60 01 00 00 	sub    $0x160,%rsp
    c1eb:	64 48 8b 04 25 28 00 	mov    %fs:0x28,%rax
    c1f2:	00 00 
    c1f4:	48 89 84 24 58 01 00 	mov    %rax,0x158(%rsp)
    c1fb:	00 
    c1fc:	31 c0                	xor    %eax,%eax
    c1fe:	e8 dd 17 00 00       	callq  d9e0 <_ZN9benchmark8internal17InitializeStreamsEv>
    c203:	48 8d 3d 5e 3c 24 00 	lea    0x243c5e(%rip),%rdi        # 24fe68 <_ZStL8__ioinit>
    c20a:	48 8d 5c 24 10       	lea    0x10(%rsp),%rbx
    c20f:	e8 2c fa ff ff       	callq  bc40 <_ZNSt8ios_base4InitC1Ev@plt>
    c214:	48 8b 3d d5 2d 24 00 	mov    0x242dd5(%rip),%rdi        # 24eff0 <_ZNSt8ios_base4InitD1Ev@GLIBCXX_3.4>
    c21b:	48 8d 15 46 32 24 00 	lea    0x243246(%rip),%rdx        # 24f468 <__dso_handle>
    c222:	48 8d 35 3f 3c 24 00 	lea    0x243c3f(%rip),%rsi        # 24fe68 <_ZStL8__ioinit>
    c229:	e8 02 f7 ff ff       	callq  b930 <__cxa_atexit@plt>
    c22e:	48 8d 35 5d 96 03 00 	lea    0x3965d(%rip),%rsi        # 45892 <_ZTSN9benchmark15ConsoleReporterE+0x52>
    c235:	48 89 df             	mov    %rbx,%rdi
    c238:	e8 d3 72 02 00       	callq  33510 <_ZNSt7__cxx1112basic_stringIcSt11char_traitsIcESaIcEEC2EPKcRKS3_.isra.62>
    c23d:	48 8d 7b 20          	lea    0x20(%rbx),%rdi
    c241:	48 8d 35 4f 96 03 00 	lea    0x3964f(%rip),%rsi        # 45897 <_ZTSN9benchmark15ConsoleReporterE+0x57>
    c248:	e8 c3 72 02 00       	callq  33510 <_ZNSt7__cxx1112basic_stringIcSt11char_traitsIcESaIcEEC2EPKcRKS3_.isra.62>
    c24d:	48 8d 7b 40          	lea    0x40(%rbx),%rdi
    c251:	48 8d 35 60 83 03 00 	lea    0x38360(%rip),%rsi        # 445b8 <_ZTSNSt6thread11_State_implINS_8_InvokerISt5tupleIJPFvPKN9benchmark8internal9Benchmark8InstanceEmiPNS4_13ThreadManagerEES8_miSA_EEEEEE+0x2f8>
    c258:	e8 b3 72 02 00       	callq  33510 <_ZNSt7__cxx1112basic_stringIcSt11char_traitsIcESaIcEEC2EPKcRKS3_.isra.62>
    c25d:	48 8d 7b 60          	lea    0x60(%rbx),%rdi
    c261:	48 8d 35 3a 96 03 00 	lea    0x3963a(%rip),%rsi        # 458a2 <_ZTSN9benchmark15ConsoleReporterE+0x62>
    c268:	e8 a3 72 02 00       	callq  33510 <_ZNSt7__cxx1112basic_stringIcSt11char_traitsIcESaIcEEC2EPKcRKS3_.isra.62>
    c26d:	48 8d bb 80 00 00 00 	lea    0x80(%rbx),%rdi
    c274:	48 8d 35 30 96 03 00 	lea    0x39630(%rip),%rsi        # 458ab <_ZTSN9benchmark15ConsoleReporterE+0x6b>
    c27b:	e8 90 72 02 00       	callq  33510 <_ZNSt7__cxx1112basic_stringIcSt11char_traitsIcESaIcEEC2EPKcRKS3_.isra.62>
    c280:	48 8d bb a0 00 00 00 	lea    0xa0(%rbx),%rdi
    c287:	48 8d 35 27 96 03 00 	lea    0x39627(%rip),%rsi        # 458b5 <_ZTSN9benchmark15ConsoleReporterE+0x75>
    c28e:	e8 7d 72 02 00       	callq  33510 <_ZNSt7__cxx1112basic_stringIcSt11char_traitsIcESaIcEEC2EPKcRKS3_.isra.62>
    c293:	48 8d bb c0 00 00 00 	lea    0xc0(%rbx),%rdi
    c29a:	48 8d 35 25 96 03 00 	lea    0x39625(%rip),%rsi        # 458c6 <_ZTSN9benchmark15ConsoleReporterE+0x86>
    c2a1:	e8 6a 72 02 00       	callq  33510 <_ZNSt7__cxx1112basic_stringIcSt11char_traitsIcESaIcEEC2EPKcRKS3_.isra.62>
    c2a6:	48 8d bb e0 00 00 00 	lea    0xe0(%rbx),%rdi
    c2ad:	48 8d 35 23 96 03 00 	lea    0x39623(%rip),%rsi        # 458d7 <_ZTSN9benchmark15ConsoleReporterE+0x97>
    c2b4:	e8 57 72 02 00       	callq  33510 <_ZNSt7__cxx1112basic_stringIcSt11char_traitsIcESaIcEEC2EPKcRKS3_.isra.62>
    c2b9:	48 8d bb 00 01 00 00 	lea    0x100(%rbx),%rdi
    c2c0:	48 8d 35 16 96 03 00 	lea    0x39616(%rip),%rsi        # 458dd <_ZTSN9benchmark15ConsoleReporterE+0x9d>
    c2c7:	e8 44 72 02 00       	callq  33510 <_ZNSt7__cxx1112basic_stringIcSt11char_traitsIcESaIcEEC2EPKcRKS3_.isra.62>
    c2cc:	48 8d bb 20 01 00 00 	lea    0x120(%rbx),%rdi
    c2d3:	48 8d 35 12 96 03 00 	lea    0x39612(%rip),%rsi        # 458ec <_ZTSN9benchmark15ConsoleReporterE+0xac>
    c2da:	e8 31 72 02 00       	callq  33510 <_ZNSt7__cxx1112basic_stringIcSt11char_traitsIcESaIcEEC2EPKcRKS3_.isra.62>
    c2df:	48 8d 4c 24 0f       	lea    0xf(%rsp),%rcx
    c2e4:	48 8d 3d 65 3b 24 00 	lea    0x243b65(%rip),%rdi        # 24fe50 <_ZN9benchmark12_GLOBAL__N_18elementsE>
    c2eb:	48 89 de             	mov    %rbx,%rsi
    c2ee:	ba 0a 00 00 00       	mov    $0xa,%edx
    c2f3:	e8 08 83 02 00       	callq  34600 <_ZNSt6vectorINSt7__cxx1112basic_stringIcSt11char_traitsIcESaIcEEESaIS5_EEC1ESt16initializer_listIS5_ERKS6_>
    c2f8:	48 8d 6c 24 f0       	lea    -0x10(%rsp),%rbp
    c2fd:	48 81 c3 20 01 00 00 	add    $0x120,%rbx
    c304:	0f 1f 40 00          	nopl   0x0(%rax)
    c308:	48 8b 3b             	mov    (%rbx),%rdi
    c30b:	48 8d 43 10          	lea    0x10(%rbx),%rax
    c30f:	48 39 c7             	cmp    %rax,%rdi
    c312:	74 47                	je     c35b <_Z41__static_initialization_and_destruction_0ii.constprop.84+0x17b>
    c314:	48 83 eb 20          	sub    $0x20,%rbx
    c318:	e8 83 f6 ff ff       	callq  b9a0 <_ZdlPv@plt>
    c31d:	48 39 dd             	cmp    %rbx,%rbp
    c320:	75 e6                	jne    c308 <_Z41__static_initialization_and_destruction_0ii.constprop.84+0x128>
    c322:	48 8d 15 3f 31 24 00 	lea    0x24313f(%rip),%rdx        # 24f468 <__dso_handle>
    c329:	48 8d 35 20 3b 24 00 	lea    0x243b20(%rip),%rsi        # 24fe50 <_ZN9benchmark12_GLOBAL__N_18elementsE>
    c330:	48 8d 3d a9 e4 00 00 	lea    0xe4a9(%rip),%rdi        # 1a7e0 <_ZNSt6vectorINSt7__cxx1112basic_stringIcSt11char_traitsIcESaIcEEESaIS5_EED1Ev>
    c337:	e8 f4 f5 ff ff       	callq  b930 <__cxa_atexit@plt>
    c33c:	48 8b 84 24 58 01 00 	mov    0x158(%rsp),%rax
    c343:	00 
    c344:	64 48 33 04 25 28 00 	xor    %fs:0x28,%rax
    c34b:	00 00 
    c34d:	75 17                	jne    c366 <_Z41__static_initialization_and_destruction_0ii.constprop.84+0x186>
    c34f:	48 81 c4 60 01 00 00 	add    $0x160,%rsp
    c356:	5b                   	pop    %rbx
    c357:	5d                   	pop    %rbp
    c358:	41 5c                	pop    %r12
    c35a:	c3                   	retq   
    c35b:	48 83 eb 20          	sub    $0x20,%rbx
    c35f:	48 39 eb             	cmp    %rbp,%rbx
    c362:	75 a4                	jne    c308 <_Z41__static_initialization_and_destruction_0ii.constprop.84+0x128>
    c364:	eb bc                	jmp    c322 <_Z41__static_initialization_and_destruction_0ii.constprop.84+0x142>
    c366:	e8 d5 f6 ff ff       	callq  ba40 <__stack_chk_fail@plt>
    c36b:	48 8d ab 40 01 00 00 	lea    0x140(%rbx),%rbp
    c372:	49 89 c4             	mov    %rax,%r12
    c375:	48 83 ed 20          	sub    $0x20,%rbp
    c379:	48 8b 7d 00          	mov    0x0(%rbp),%rdi
    c37d:	48 8d 55 10          	lea    0x10(%rbp),%rdx
    c381:	48 39 d7             	cmp    %rdx,%rdi
    c384:	74 05                	je     c38b <_Z41__static_initialization_and_destruction_0ii.constprop.84+0x1ab>
    c386:	e8 15 f6 ff ff       	callq  b9a0 <_ZdlPv@plt>
    c38b:	48 39 dd             	cmp    %rbx,%rbp
    c38e:	75 e5                	jne    c375 <_Z41__static_initialization_and_destruction_0ii.constprop.84+0x195>
    c390:	4c 89 e7             	mov    %r12,%rdi
    c393:	e8 88 f9 ff ff       	callq  bd20 <_Unwind_Resume@plt>
    c398:	0f 1f 84 00 00 00 00 	nopl   0x0(%rax,%rax,1)
    c39f:	00 

000000000000c3a0 <_GLOBAL__sub_I__ZN9benchmark11CSVReporter13ReportContextERKNS_17BenchmarkReporter7ContextE>:
    c3a0:	e9 3b fe ff ff       	jmpq   c1e0 <_Z41__static_initialization_and_destruction_0ii.constprop.84>
    c3a5:	66 2e 0f 1f 84 00 00 	nopw   %cs:0x0(%rax,%rax,1)
    c3ac:	00 00 00 
    c3af:	90                   	nop

000000000000c3b0 <_GLOBAL__sub_I__ZN9benchmark12JSONReporter13ReportContextERKNS_17BenchmarkReporter7ContextE>:
    c3b0:	48 83 ec 08          	sub    $0x8,%rsp
    c3b4:	e8 27 16 00 00       	callq  d9e0 <_ZN9benchmark8internal17InitializeStreamsEv>
    c3b9:	48 8d 3d a9 3a 24 00 	lea    0x243aa9(%rip),%rdi        # 24fe69 <_ZStL8__ioinit>
    c3c0:	e8 7b f8 ff ff       	callq  bc40 <_ZNSt8ios_base4InitC1Ev@plt>
    c3c5:	48 8b 3d 24 2c 24 00 	mov    0x242c24(%rip),%rdi        # 24eff0 <_ZNSt8ios_base4InitD1Ev@GLIBCXX_3.4>
    c3cc:	48 8d 15 95 30 24 00 	lea    0x243095(%rip),%rdx        # 24f468 <__dso_handle>
    c3d3:	48 8d 35 8f 3a 24 00 	lea    0x243a8f(%rip),%rsi        # 24fe69 <_ZStL8__ioinit>
    c3da:	48 83 c4 08          	add    $0x8,%rsp
    c3de:	e9 4d f5 ff ff       	jmpq   b930 <__cxa_atexit@plt>
    c3e3:	66 2e 0f 1f 84 00 00 	nopw   %cs:0x0(%rax,%rax,1)
    c3ea:	00 00 00 
    c3ed:	0f 1f 00             	nopl   (%rax)

000000000000c3f0 <_GLOBAL__sub_I__ZN9benchmark17BenchmarkReporterC2Ev>:
    c3f0:	48 83 ec 08          	sub    $0x8,%rsp
    c3f4:	e8 e7 15 00 00       	callq  d9e0 <_ZN9benchmark8internal17InitializeStreamsEv>
    c3f9:	48 8d 3d 6a 3a 24 00 	lea    0x243a6a(%rip),%rdi        # 24fe6a <_ZStL8__ioinit>
    c400:	e8 3b f8 ff ff       	callq  bc40 <_ZNSt8ios_base4InitC1Ev@plt>
    c405:	48 8b 3d e4 2b 24 00 	mov    0x242be4(%rip),%rdi        # 24eff0 <_ZNSt8ios_base4InitD1Ev@GLIBCXX_3.4>
    c40c:	48 8d 15 55 30 24 00 	lea    0x243055(%rip),%rdx        # 24f468 <__dso_handle>
    c413:	48 8d 35 50 3a 24 00 	lea    0x243a50(%rip),%rsi        # 24fe6a <_ZStL8__ioinit>
    c41a:	48 83 c4 08          	add    $0x8,%rsp
    c41e:	e9 0d f5 ff ff       	jmpq   b930 <__cxa_atexit@plt>
    c423:	66 2e 0f 1f 84 00 00 	nopw   %cs:0x0(%rax,%rax,1)
    c42a:	00 00 00 
    c42d:	0f 1f 00             	nopl   (%rax)

000000000000c430 <_GLOBAL__sub_I__ZN9benchmark14StatisticsMeanERKSt6vectorIdSaIdEE>:
    c430:	48 83 ec 08          	sub    $0x8,%rsp
    c434:	e8 a7 15 00 00       	callq  d9e0 <_ZN9benchmark8internal17InitializeStreamsEv>
    c439:	48 8d 3d 2b 3a 24 00 	lea    0x243a2b(%rip),%rdi        # 24fe6b <_ZStL8__ioinit>
    c440:	e8 fb f7 ff ff       	callq  bc40 <_ZNSt8ios_base4InitC1Ev@plt>
    c445:	48 8b 3d a4 2b 24 00 	mov    0x242ba4(%rip),%rdi        # 24eff0 <_ZNSt8ios_base4InitD1Ev@GLIBCXX_3.4>
    c44c:	48 8d 15 15 30 24 00 	lea    0x243015(%rip),%rdx        # 24f468 <__dso_handle>
    c453:	48 8d 35 11 3a 24 00 	lea    0x243a11(%rip),%rsi        # 24fe6b <_ZStL8__ioinit>
    c45a:	48 83 c4 08          	add    $0x8,%rsp
    c45e:	e9 cd f4 ff ff       	jmpq   b930 <__cxa_atexit@plt>
    c463:	66 2e 0f 1f 84 00 00 	nopw   %cs:0x0(%rax,%rax,1)
    c46a:	00 00 00 
    c46d:	0f 1f 00             	nopl   (%rax)

000000000000c470 <_GLOBAL__sub_I__ZN9benchmark19AppendHumanReadableEiPNSt7__cxx1112basic_stringIcSt11char_traitsIcESaIcEEE>:
    c470:	e9 6b 15 00 00       	jmpq   d9e0 <_ZN9benchmark8internal17InitializeStreamsEv>
    c475:	66 2e 0f 1f 84 00 00 	nopw   %cs:0x0(%rax,%rax,1)
    c47c:	00 00 00 
    c47f:	90                   	nop

000000000000c480 <_GLOBAL__sub_I__ZN9benchmark7CPUInfo3GetEv>:
    c480:	48 83 ec 08          	sub    $0x8,%rsp
    c484:	e8 57 15 00 00       	callq  d9e0 <_ZN9benchmark8internal17InitializeStreamsEv>
    c489:	48 8d 3d f0 39 24 00 	lea    0x2439f0(%rip),%rdi        # 24fe80 <_ZStL8__ioinit>
    c490:	e8 ab f7 ff ff       	callq  bc40 <_ZNSt8ios_base4InitC1Ev@plt>
    c495:	48 8b 3d 54 2b 24 00 	mov    0x242b54(%rip),%rdi        # 24eff0 <_ZNSt8ios_base4InitD1Ev@GLIBCXX_3.4>
    c49c:	48 8d 15 c5 2f 24 00 	lea    0x242fc5(%rip),%rdx        # 24f468 <__dso_handle>
    c4a3:	48 8d 35 d6 39 24 00 	lea    0x2439d6(%rip),%rsi        # 24fe80 <_ZStL8__ioinit>
    c4aa:	48 83 c4 08          	add    $0x8,%rsp
    c4ae:	e9 7d f4 ff ff       	jmpq   b930 <__cxa_atexit@plt>
    c4b3:	66 2e 0f 1f 84 00 00 	nopw   %cs:0x0(%rax,%rax,1)
    c4ba:	00 00 00 
    c4bd:	0f 1f 00             	nopl   (%rax)

000000000000c4c0 <_GLOBAL__sub_I__ZN9benchmark15ProcessCPUUsageEv>:
    c4c0:	48 83 ec 08          	sub    $0x8,%rsp
    c4c4:	e8 17 15 00 00       	callq  d9e0 <_ZN9benchmark8internal17InitializeStreamsEv>
    c4c9:	48 8d 3d b1 39 24 00 	lea    0x2439b1(%rip),%rdi        # 24fe81 <_ZStL8__ioinit>
    c4d0:	e8 6b f7 ff ff       	callq  bc40 <_ZNSt8ios_base4InitC1Ev@plt>
    c4d5:	48 8b 3d 14 2b 24 00 	mov    0x242b14(%rip),%rdi        # 24eff0 <_ZNSt8ios_base4InitD1Ev@GLIBCXX_3.4>
    c4dc:	48 8d 15 85 2f 24 00 	lea    0x242f85(%rip),%rdx        # 24f468 <__dso_handle>
    c4e3:	48 8d 35 97 39 24 00 	lea    0x243997(%rip),%rsi        # 24fe81 <_ZStL8__ioinit>
    c4ea:	48 83 c4 08          	add    $0x8,%rsp
    c4ee:	e9 3d f4 ff ff       	jmpq   b930 <__cxa_atexit@plt>
    c4f3:	66 2e 0f 1f 84 00 00 	nopw   %cs:0x0(%rax,%rax,1)
    c4fa:	00 00 00 
    c4fd:	0f 1f 00             	nopl   (%rax)

000000000000c500 <_GLOBAL__sub_I__ZN9benchmark20SleepForMicrosecondsEi>:
    c500:	e9 db 14 00 00       	jmpq   d9e0 <_ZN9benchmark8internal17InitializeStreamsEv>
    c505:	66 2e 0f 1f 84 00 00 	nopw   %cs:0x0(%rax,%rax,1)
    c50c:	00 00 00 
    c50f:	90                   	nop

000000000000c510 <_start>:
    c510:	31 ed                	xor    %ebp,%ebp
    c512:	49 89 d1             	mov    %rdx,%r9
    c515:	5e                   	pop    %rsi
    c516:	48 89 e2             	mov    %rsp,%rdx
    c519:	48 83 e4 f0          	and    $0xfffffffffffffff0,%rsp
    c51d:	50                   	push   %rax
    c51e:	54                   	push   %rsp
    c51f:	4c 8d 05 ba 76 03 00 	lea    0x376ba(%rip),%r8        # 43be0 <__libc_csu_fini>
    c526:	48 8d 0d 43 76 03 00 	lea    0x37643(%rip),%rcx        # 43b70 <__libc_csu_init>
    c52d:	48 8d 3d 5c 07 00 00 	lea    0x75c(%rip),%rdi        # cc90 <main>
    c534:	ff 15 9e 2a 24 00    	callq  *0x242a9e(%rip)        # 24efd8 <__libc_start_main@GLIBC_2.2.5>
    c53a:	f4                   	hlt    
    c53b:	0f 1f 44 00 00       	nopl   0x0(%rax,%rax,1)

000000000000c540 <deregister_tm_clones>:
    c540:	48 8d 3d 61 33 24 00 	lea    0x243361(%rip),%rdi        # 24f8a8 <__TMC_END__>
    c547:	55                   	push   %rbp
    c548:	48 8d 05 59 33 24 00 	lea    0x243359(%rip),%rax        # 24f8a8 <__TMC_END__>
    c54f:	48 39 f8             	cmp    %rdi,%rax
    c552:	48 89 e5             	mov    %rsp,%rbp
    c555:	74 19                	je     c570 <deregister_tm_clones+0x30>
    c557:	48 8b 05 72 2a 24 00 	mov    0x242a72(%rip),%rax        # 24efd0 <_ITM_deregisterTMCloneTable>
    c55e:	48 85 c0             	test   %rax,%rax
    c561:	74 0d                	je     c570 <deregister_tm_clones+0x30>
    c563:	5d                   	pop    %rbp
    c564:	ff e0                	jmpq   *%rax
    c566:	66 2e 0f 1f 84 00 00 	nopw   %cs:0x0(%rax,%rax,1)
    c56d:	00 00 00 
    c570:	5d                   	pop    %rbp
    c571:	c3                   	retq   
    c572:	0f 1f 40 00          	nopl   0x0(%rax)
    c576:	66 2e 0f 1f 84 00 00 	nopw   %cs:0x0(%rax,%rax,1)
    c57d:	00 00 00 

000000000000c580 <register_tm_clones>:
    c580:	48 8d 3d 21 33 24 00 	lea    0x243321(%rip),%rdi        # 24f8a8 <__TMC_END__>
    c587:	48 8d 35 1a 33 24 00 	lea    0x24331a(%rip),%rsi        # 24f8a8 <__TMC_END__>
    c58e:	55                   	push   %rbp
    c58f:	48 29 fe             	sub    %rdi,%rsi
    c592:	48 89 e5             	mov    %rsp,%rbp
    c595:	48 c1 fe 03          	sar    $0x3,%rsi
    c599:	48 89 f0             	mov    %rsi,%rax
    c59c:	48 c1 e8 3f          	shr    $0x3f,%rax
    c5a0:	48 01 c6             	add    %rax,%rsi
    c5a3:	48 d1 fe             	sar    %rsi
    c5a6:	74 18                	je     c5c0 <register_tm_clones+0x40>
    c5a8:	48 8b 05 39 2a 24 00 	mov    0x242a39(%rip),%rax        # 24efe8 <_ITM_registerTMCloneTable>
    c5af:	48 85 c0             	test   %rax,%rax
    c5b2:	74 0c                	je     c5c0 <register_tm_clones+0x40>
    c5b4:	5d                   	pop    %rbp
    c5b5:	ff e0                	jmpq   *%rax
    c5b7:	66 0f 1f 84 00 00 00 	nopw   0x0(%rax,%rax,1)
    c5be:	00 00 
    c5c0:	5d                   	pop    %rbp
    c5c1:	c3                   	retq   
    c5c2:	0f 1f 40 00          	nopl   0x0(%rax)
    c5c6:	66 2e 0f 1f 84 00 00 	nopw   %cs:0x0(%rax,%rax,1)
    c5cd:	00 00 00 

000000000000c5d0 <__do_global_dtors_aux>:
    c5d0:	80 3d 79 36 24 00 00 	cmpb   $0x0,0x243679(%rip)        # 24fc50 <completed.6973>
    c5d7:	75 2f                	jne    c608 <__do_global_dtors_aux+0x38>
    c5d9:	48 83 3d bf 29 24 00 	cmpq   $0x0,0x2429bf(%rip)        # 24efa0 <__cxa_finalize@GLIBC_2.2.5>
    c5e0:	00 
    c5e1:	55                   	push   %rbp
    c5e2:	48 89 e5             	mov    %rsp,%rbp
    c5e5:	74 0d                	je     c5f4 <__do_global_dtors_aux+0x24>
    c5e7:	48 8b 3d 7a 2e 24 00 	mov    0x242e7a(%rip),%rdi        # 24f468 <__dso_handle>
    c5ee:	ff 15 ac 29 24 00    	callq  *0x2429ac(%rip)        # 24efa0 <__cxa_finalize@GLIBC_2.2.5>
    c5f4:	e8 47 ff ff ff       	callq  c540 <deregister_tm_clones>
    c5f9:	c6 05 50 36 24 00 01 	movb   $0x1,0x243650(%rip)        # 24fc50 <completed.6973>
    c600:	5d                   	pop    %rbp
    c601:	c3                   	retq   
    c602:	66 0f 1f 44 00 00    	nopw   0x0(%rax,%rax,1)
    c608:	f3 c3                	repz retq 
    c60a:	66 0f 1f 44 00 00    	nopw   0x0(%rax,%rax,1)

000000000000c610 <frame_dummy>:
    c610:	55                   	push   %rbp
    c611:	48 89 e5             	mov    %rsp,%rbp
    c614:	5d                   	pop    %rbp
    c615:	e9 66 ff ff ff       	jmpq   c580 <register_tm_clones>
    c61a:	66 0f 1f 44 00 00    	nopw   0x0(%rax,%rax,1)

000000000000c620 <some_func>:
    c620:	85 f6                	test   %esi,%esi
    c622:	7e 7f                	jle    c6a3 <some_func+0x83>
    c624:	8d 4e ff             	lea    -0x1(%rsi),%ecx
    c627:	89 f0                	mov    %esi,%eax
    c629:	83 e0 03             	and    $0x3,%eax
    c62c:	83 f9 03             	cmp    $0x3,%ecx
    c62f:	72 50                	jb     c681 <some_func+0x61>
    c631:	89 c1                	mov    %eax,%ecx
    c633:	29 f1                	sub    %esi,%ecx
    c635:	66 66 2e 0f 1f 84 00 	data16 nopw %cs:0x0(%rax,%rax,1)
    c63c:	00 00 00 00 
    c640:	01 f7                	add    %esi,%edi
    c642:	89 fa                	mov    %edi,%edx
    c644:	81 e2 00 00 00 ff    	and    $0xff000000,%edx
    c64a:	c1 ff 08             	sar    $0x8,%edi
    c64d:	09 d7                	or     %edx,%edi
    c64f:	01 f7                	add    %esi,%edi
    c651:	89 fa                	mov    %edi,%edx
    c653:	81 e2 00 00 00 ff    	and    $0xff000000,%edx
    c659:	c1 ff 08             	sar    $0x8,%edi
    c65c:	09 d7                	or     %edx,%edi
    c65e:	01 f7                	add    %esi,%edi
    c660:	89 fa                	mov    %edi,%edx
    c662:	81 e2 00 00 00 ff    	and    $0xff000000,%edx
    c668:	c1 ff 08             	sar    $0x8,%edi
    c66b:	09 d7                	or     %edx,%edi
    c66d:	01 f7                	add    %esi,%edi
    c66f:	89 fa                	mov    %edi,%edx
    c671:	81 e2 00 00 00 ff    	and    $0xff000000,%edx
    c677:	c1 ff 08             	sar    $0x8,%edi
    c67a:	09 d7                	or     %edx,%edi
    c67c:	83 c1 04             	add    $0x4,%ecx
    c67f:	75 bf                	jne    c640 <some_func+0x20>
    c681:	85 c0                	test   %eax,%eax
    c683:	74 1e                	je     c6a3 <some_func+0x83>
    c685:	f7 d8                	neg    %eax
    c687:	66 0f 1f 84 00 00 00 	nopw   0x0(%rax,%rax,1)
    c68e:	00 00 
    c690:	01 f7                	add    %esi,%edi
    c692:	89 f9                	mov    %edi,%ecx
    c694:	81 e1 00 00 00 ff    	and    $0xff000000,%ecx
    c69a:	c1 ff 08             	sar    $0x8,%edi
    c69d:	09 cf                	or     %ecx,%edi
    c69f:	ff c0                	inc    %eax
    c6a1:	75 ed                	jne    c690 <some_func+0x70>
    c6a3:	89 f8                	mov    %edi,%eax
    c6a5:	c3                   	retq   
    c6a6:	66 2e 0f 1f 84 00 00 	nopw   %cs:0x0(%rax,%rax,1)
    c6ad:	00 00 00 

000000000000c6b0 <_ZL17bm_no_tracepointsRN9benchmark5StateE>:
    c6b0:	55                   	push   %rbp
    c6b1:	41 56                	push   %r14
    c6b3:	53                   	push   %rbx
    c6b4:	48 83 ec 10          	sub    $0x10,%rsp
    c6b8:	49 89 fe             	mov    %rdi,%r14
    c6bb:	41 8a 6e 3c          	mov    0x3c(%r14),%bpl
    c6bf:	49 8b 5e 78          	mov    0x78(%r14),%rbx
    c6c3:	e8 e8 0a 00 00       	callq  d1b0 <_ZN9benchmark5State16StartKeepRunningEv>
    c6c8:	48 85 db             	test   %rbx,%rbx
    c6cb:	0f 84 87 00 00 00    	je     c758 <_ZL17bm_no_tracepointsRN9benchmark5StateE+0xa8>
    c6d1:	40 84 ed             	test   %bpl,%bpl
    c6d4:	0f 85 7e 00 00 00    	jne    c758 <_ZL17bm_no_tracepointsRN9benchmark5StateE+0xa8>
    c6da:	66 0f 1f 44 00 00    	nopw   0x0(%rax,%rax,1)
    c6e0:	b8 05 00 00 00       	mov    $0x5,%eax
    c6e5:	b9 e8 03 00 00       	mov    $0x3e8,%ecx
    c6ea:	66 0f 1f 44 00 00    	nopw   0x0(%rax,%rax,1)
    c6f0:	05 e8 03 00 00       	add    $0x3e8,%eax
    c6f5:	89 c2                	mov    %eax,%edx
    c6f7:	81 e2 00 00 00 ff    	and    $0xff000000,%edx
    c6fd:	c1 f8 08             	sar    $0x8,%eax
    c700:	09 d0                	or     %edx,%eax
    c702:	05 e8 03 00 00       	add    $0x3e8,%eax
    c707:	89 c2                	mov    %eax,%edx
    c709:	81 e2 00 00 00 ff    	and    $0xff000000,%edx
    c70f:	c1 f8 08             	sar    $0x8,%eax
    c712:	09 d0                	or     %edx,%eax
    c714:	05 e8 03 00 00       	add    $0x3e8,%eax
    c719:	89 c2                	mov    %eax,%edx
    c71b:	81 e2 00 00 00 ff    	and    $0xff000000,%edx
    c721:	c1 f8 08             	sar    $0x8,%eax
    c724:	09 d0                	or     %edx,%eax
    c726:	05 e8 03 00 00       	add    $0x3e8,%eax
    c72b:	89 c2                	mov    %eax,%edx
    c72d:	81 e2 00 00 00 ff    	and    $0xff000000,%edx
    c733:	c1 f8 08             	sar    $0x8,%eax
    c736:	09 d0                	or     %edx,%eax
    c738:	05 e8 03 00 00       	add    $0x3e8,%eax
    c73d:	89 c2                	mov    %eax,%edx
    c73f:	81 e2 00 00 00 ff    	and    $0xff000000,%edx
    c745:	c1 f8 08             	sar    $0x8,%eax
    c748:	09 d0                	or     %edx,%eax
    c74a:	83 c1 fb             	add    $0xfffffffb,%ecx
    c74d:	75 a1                	jne    c6f0 <_ZL17bm_no_tracepointsRN9benchmark5StateE+0x40>
    c74f:	89 44 24 0c          	mov    %eax,0xc(%rsp)
    c753:	48 ff cb             	dec    %rbx
    c756:	75 88                	jne    c6e0 <_ZL17bm_no_tracepointsRN9benchmark5StateE+0x30>
    c758:	4c 89 f7             	mov    %r14,%rdi
    c75b:	48 83 c4 10          	add    $0x10,%rsp
    c75f:	5b                   	pop    %rbx
    c760:	41 5e                	pop    %r14
    c762:	5d                   	pop    %rbp
    c763:	e9 88 0c 00 00       	jmpq   d3f0 <_ZN9benchmark5State17FinishKeepRunningEv>
    c768:	0f 1f 84 00 00 00 00 	nopl   0x0(%rax,%rax,1)
    c76f:	00 

000000000000c770 <_ZL19bm_with_tracepointsRN9benchmark5StateE>:
    c770:	55                   	push   %rbp
    c771:	41 57                	push   %r15
    c773:	41 56                	push   %r14
    c775:	41 55                	push   %r13
    c777:	41 54                	push   %r12
    c779:	53                   	push   %rbx
    c77a:	48 81 ec 28 01 00 00 	sub    $0x128,%rsp
    c781:	49 89 fe             	mov    %rdi,%r14
    c784:	64 48 8b 04 25 28 00 	mov    %fs:0x28,%rax
    c78b:	00 00 
    c78d:	48 89 84 24 20 01 00 	mov    %rax,0x120(%rsp)
    c794:	00 
    c795:	e8 46 f4 ff ff       	callq  bbe0 <getpid@plt>
    c79a:	89 c3                	mov    %eax,%ebx
    c79c:	bf 70 00 00 00       	mov    $0x70,%edi
    c7a1:	e8 2a f2 ff ff       	callq  b9d0 <_Znwm@plt>
    c7a6:	49 89 c7             	mov    %rax,%r15
    c7a9:	48 b8 01 00 00 00 01 	movabs $0x100000001,%rax
    c7b0:	00 00 00 
    c7b3:	49 89 47 08          	mov    %rax,0x8(%r15)
    c7b7:	48 8d 05 8a 22 24 00 	lea    0x24228a(%rip),%rax        # 24ea48 <_ZTVSt23_Sp_counted_ptr_inplaceIN8dyntrace7process7processESaIS2_ELN9__gnu_cxx12_Lock_policyE2EE+0x10>
    c7be:	49 89 07             	mov    %rax,(%r15)
    c7c1:	49 8d 47 10          	lea    0x10(%r15),%rax
    c7c5:	41 89 5f 10          	mov    %ebx,0x10(%r15)
    c7c9:	0f 57 c0             	xorps  %xmm0,%xmm0
    c7cc:	41 0f 11 47 28       	movups %xmm0,0x28(%r15)
    c7d1:	41 0f 11 47 18       	movups %xmm0,0x18(%r15)
    c7d6:	49 c7 47 38 00 00 00 	movq   $0x0,0x38(%r15)
    c7dd:	00 
    c7de:	49 8d 4f 48          	lea    0x48(%r15),%rcx
    c7e2:	41 c7 47 48 00 00 00 	movl   $0x0,0x48(%r15)
    c7e9:	00 
    c7ea:	49 c7 47 50 00 00 00 	movq   $0x0,0x50(%r15)
    c7f1:	00 
    c7f2:	49 89 4f 58          	mov    %rcx,0x58(%r15)
    c7f6:	49 89 4f 60          	mov    %rcx,0x60(%r15)
    c7fa:	49 c7 47 68 00 00 00 	movq   $0x0,0x68(%r15)
    c801:	00 
    c802:	48 89 44 24 30       	mov    %rax,0x30(%rsp)
    c807:	4c 89 7c 24 38       	mov    %r15,0x38(%rsp)
    c80c:	48 83 3d b4 27 24 00 	cmpq   $0x0,0x2427b4(%rip)        # 24efc8 <__pthread_key_create@GLIBC_2.2.5>
    c813:	00 
    c814:	74 07                	je     c81d <_ZL19bm_with_tracepointsRN9benchmark5StateE+0xad>
    c816:	f0 41 ff 47 08       	lock incl 0x8(%r15)
    c81b:	eb 08                	jmp    c825 <_ZL19bm_with_tracepointsRN9benchmark5StateE+0xb5>
    c81d:	41 c7 47 08 02 00 00 	movl   $0x2,0x8(%r15)
    c824:	00 
    c825:	48 8d 7c 24 40       	lea    0x40(%rsp),%rdi
    c82a:	48 8d 74 24 30       	lea    0x30(%rsp),%rsi
    c82f:	e8 fc f3 ff ff       	callq  bc30 <_ZN8dyntrace6fasttp7contextC1ESt10shared_ptrIKNS_7process7processEE@plt>
    c834:	48 8b 5c 24 38       	mov    0x38(%rsp),%rbx
    c839:	48 85 db             	test   %rbx,%rbx
    c83c:	74 64                	je     c8a2 <_ZL19bm_with_tracepointsRN9benchmark5StateE+0x132>
    c83e:	48 83 3d 82 27 24 00 	cmpq   $0x0,0x242782(%rip)        # 24efc8 <__pthread_key_create@GLIBC_2.2.5>
    c845:	00 
    c846:	74 11                	je     c859 <_ZL19bm_with_tracepointsRN9benchmark5StateE+0xe9>
    c848:	b8 ff ff ff ff       	mov    $0xffffffff,%eax
    c84d:	f0 0f c1 43 08       	lock xadd %eax,0x8(%rbx)
    c852:	83 f8 01             	cmp    $0x1,%eax
    c855:	74 10                	je     c867 <_ZL19bm_with_tracepointsRN9benchmark5StateE+0xf7>
    c857:	eb 49                	jmp    c8a2 <_ZL19bm_with_tracepointsRN9benchmark5StateE+0x132>
    c859:	8b 43 08             	mov    0x8(%rbx),%eax
    c85c:	8d 48 ff             	lea    -0x1(%rax),%ecx
    c85f:	89 4b 08             	mov    %ecx,0x8(%rbx)
    c862:	83 f8 01             	cmp    $0x1,%eax
    c865:	75 3b                	jne    c8a2 <_ZL19bm_with_tracepointsRN9benchmark5StateE+0x132>
    c867:	48 8b 03             	mov    (%rbx),%rax
    c86a:	48 89 df             	mov    %rbx,%rdi
    c86d:	ff 50 10             	callq  *0x10(%rax)
    c870:	48 83 3d 50 27 24 00 	cmpq   $0x0,0x242750(%rip)        # 24efc8 <__pthread_key_create@GLIBC_2.2.5>
    c877:	00 
    c878:	74 11                	je     c88b <_ZL19bm_with_tracepointsRN9benchmark5StateE+0x11b>
    c87a:	b8 ff ff ff ff       	mov    $0xffffffff,%eax
    c87f:	f0 0f c1 43 0c       	lock xadd %eax,0xc(%rbx)
    c884:	83 f8 01             	cmp    $0x1,%eax
    c887:	74 10                	je     c899 <_ZL19bm_with_tracepointsRN9benchmark5StateE+0x129>
    c889:	eb 17                	jmp    c8a2 <_ZL19bm_with_tracepointsRN9benchmark5StateE+0x132>
    c88b:	8b 43 0c             	mov    0xc(%rbx),%eax
    c88e:	8d 48 ff             	lea    -0x1(%rax),%ecx
    c891:	89 4b 0c             	mov    %ecx,0xc(%rbx)
    c894:	83 f8 01             	cmp    $0x1,%eax
    c897:	75 09                	jne    c8a2 <_ZL19bm_with_tracepointsRN9benchmark5StateE+0x132>
    c899:	48 8b 03             	mov    (%rbx),%rax
    c89c:	48 89 df             	mov    %rbx,%rdi
    c89f:	ff 50 18             	callq  *0x18(%rax)
    c8a2:	4c 8d a4 24 e8 00 00 	lea    0xe8(%rsp),%r12
    c8a9:	00 
    c8aa:	48 b8 73 6f 6d 65 5f 	movabs $0x6e75665f656d6f73,%rax
    c8b1:	66 75 6e 
    c8b4:	48 89 84 24 e8 00 00 	mov    %rax,0xe8(%rsp)
    c8bb:	00 
    c8bc:	66 c7 84 24 f0 00 00 	movw   $0x63,0xf0(%rsp)
    c8c3:	00 63 00 
    c8c6:	48 8b 1d cb 26 24 00 	mov    0x2426cb(%rip),%rbx        # 24ef98 <_ZTVN8dyntrace6fasttp15symbol_locationE>
    c8cd:	48 83 c3 10          	add    $0x10,%rbx
    c8d1:	48 89 9c 24 f8 00 00 	mov    %rbx,0xf8(%rsp)
    c8d8:	00 
    c8d9:	4c 8d ac 24 10 01 00 	lea    0x110(%rsp),%r13
    c8e0:	00 
    c8e1:	4c 89 ac 24 00 01 00 	mov    %r13,0x100(%rsp)
    c8e8:	00 
    c8e9:	0f 10 84 24 e8 00 00 	movups 0xe8(%rsp),%xmm0
    c8f0:	00 
    c8f1:	0f 11 84 24 10 01 00 	movups %xmm0,0x110(%rsp)
    c8f8:	00 
    c8f9:	48 c7 84 24 08 01 00 	movq   $0x9,0x108(%rsp)
    c900:	00 09 00 00 00 
    c905:	4c 89 a4 24 d8 00 00 	mov    %r12,0xd8(%rsp)
    c90c:	00 
    c90d:	48 c7 84 24 e0 00 00 	movq   $0x0,0xe0(%rsp)
    c914:	00 00 00 00 00 
    c919:	c6 84 24 e8 00 00 00 	movb   $0x0,0xe8(%rsp)
    c920:	00 
    c921:	48 8d 05 c8 03 00 00 	lea    0x3c8(%rip),%rax        # ccf0 <_ZL7handlerPKvRKN8dyntrace6tracer4regsE>
    c928:	48 89 44 24 10       	mov    %rax,0x10(%rsp)
    c92d:	48 8d 05 3c 05 00 00 	lea    0x53c(%rip),%rax        # ce70 <_ZNSt17_Function_handlerIFvPKvRKN8dyntrace6tracer4regsEEPS7_E9_M_invokeERKSt9_Any_dataOS1_S6_>
    c934:	48 89 44 24 28       	mov    %rax,0x28(%rsp)
    c939:	48 8d 05 40 05 00 00 	lea    0x540(%rip),%rax        # ce80 <_ZNSt14_Function_base13_Base_managerIPFvPKvRKN8dyntrace6tracer4regsEEE10_M_managerERSt9_Any_dataRKSB_St18_Manager_operation>
    c940:	48 89 44 24 20       	mov    %rax,0x20(%rsp)
    c945:	48 8d bc 24 c0 00 00 	lea    0xc0(%rsp),%rdi
    c94c:	00 
    c94d:	48 8d 74 24 40       	lea    0x40(%rsp),%rsi
    c952:	48 8d 94 24 f8 00 00 	lea    0xf8(%rsp),%rdx
    c959:	00 
    c95a:	48 8d 4c 24 10       	lea    0x10(%rsp),%rcx
    c95f:	45 31 c0             	xor    %r8d,%r8d
    c962:	e8 89 ec ff ff       	callq  b5f0 <_ZN8dyntrace6fasttp7context6createERKNS0_8locationEOSt8functionIFvPKvRKNS_6tracer4regsEEEb@plt>
    c967:	48 8b 44 24 20       	mov    0x20(%rsp),%rax
    c96c:	48 85 c0             	test   %rax,%rax
    c96f:	74 0f                	je     c980 <_ZL19bm_with_tracepointsRN9benchmark5StateE+0x210>
    c971:	48 8d 7c 24 10       	lea    0x10(%rsp),%rdi
    c976:	ba 03 00 00 00       	mov    $0x3,%edx
    c97b:	48 89 fe             	mov    %rdi,%rsi
    c97e:	ff d0                	callq  *%rax
    c980:	48 89 9c 24 f8 00 00 	mov    %rbx,0xf8(%rsp)
    c987:	00 
    c988:	48 8b bc 24 00 01 00 	mov    0x100(%rsp),%rdi
    c98f:	00 
    c990:	4c 39 ef             	cmp    %r13,%rdi
    c993:	74 05                	je     c99a <_ZL19bm_with_tracepointsRN9benchmark5StateE+0x22a>
    c995:	e8 06 f0 ff ff       	callq  b9a0 <_ZdlPv@plt>
    c99a:	48 8b bc 24 d8 00 00 	mov    0xd8(%rsp),%rdi
    c9a1:	00 
    c9a2:	4c 39 e7             	cmp    %r12,%rdi
    c9a5:	74 05                	je     c9ac <_ZL19bm_with_tracepointsRN9benchmark5StateE+0x23c>
    c9a7:	e8 f4 ef ff ff       	callq  b9a0 <_ZdlPv@plt>
    c9ac:	48 c7 05 b1 32 24 00 	movq   $0x0,0x2432b1(%rip)        # 24fc68 <_ZL5count>
    c9b3:	00 00 00 00 
    c9b7:	41 8a 6e 3c          	mov    0x3c(%r14),%bpl
    c9bb:	49 8b 5e 78          	mov    0x78(%r14),%rbx
    c9bf:	4c 89 f7             	mov    %r14,%rdi
    c9c2:	e8 e9 07 00 00       	callq  d1b0 <_ZN9benchmark5State16StartKeepRunningEv>
    c9c7:	48 85 db             	test   %rbx,%rbx
    c9ca:	0f 84 88 00 00 00    	je     ca58 <_ZL19bm_with_tracepointsRN9benchmark5StateE+0x2e8>
    c9d0:	40 84 ed             	test   %bpl,%bpl
    c9d3:	0f 85 7f 00 00 00    	jne    ca58 <_ZL19bm_with_tracepointsRN9benchmark5StateE+0x2e8>
    c9d9:	0f 1f 80 00 00 00 00 	nopl   0x0(%rax)
    c9e0:	b8 05 00 00 00       	mov    $0x5,%eax
    c9e5:	b9 e8 03 00 00       	mov    $0x3e8,%ecx
    c9ea:	66 0f 1f 44 00 00    	nopw   0x0(%rax,%rax,1)
    c9f0:	05 e8 03 00 00       	add    $0x3e8,%eax
    c9f5:	89 c2                	mov    %eax,%edx
    c9f7:	81 e2 00 00 00 ff    	and    $0xff000000,%edx
    c9fd:	c1 f8 08             	sar    $0x8,%eax
    ca00:	09 d0                	or     %edx,%eax
    ca02:	05 e8 03 00 00       	add    $0x3e8,%eax
    ca07:	89 c2                	mov    %eax,%edx
    ca09:	81 e2 00 00 00 ff    	and    $0xff000000,%edx
    ca0f:	c1 f8 08             	sar    $0x8,%eax
    ca12:	09 d0                	or     %edx,%eax
    ca14:	05 e8 03 00 00       	add    $0x3e8,%eax
    ca19:	89 c2                	mov    %eax,%edx
    ca1b:	81 e2 00 00 00 ff    	and    $0xff000000,%edx
    ca21:	c1 f8 08             	sar    $0x8,%eax
    ca24:	09 d0                	or     %edx,%eax
    ca26:	05 e8 03 00 00       	add    $0x3e8,%eax
    ca2b:	89 c2                	mov    %eax,%edx
    ca2d:	81 e2 00 00 00 ff    	and    $0xff000000,%edx
    ca33:	c1 f8 08             	sar    $0x8,%eax
    ca36:	09 d0                	or     %edx,%eax
    ca38:	05 e8 03 00 00       	add    $0x3e8,%eax
    ca3d:	89 c2                	mov    %eax,%edx
    ca3f:	81 e2 00 00 00 ff    	and    $0xff000000,%edx
    ca45:	c1 f8 08             	sar    $0x8,%eax
    ca48:	09 d0                	or     %edx,%eax
    ca4a:	83 c1 fb             	add    $0xfffffffb,%ecx
    ca4d:	75 a1                	jne    c9f0 <_ZL19bm_with_tracepointsRN9benchmark5StateE+0x280>
    ca4f:	89 44 24 0c          	mov    %eax,0xc(%rsp)
    ca53:	48 ff cb             	dec    %rbx
    ca56:	75 88                	jne    c9e0 <_ZL19bm_with_tracepointsRN9benchmark5StateE+0x270>
    ca58:	4c 89 f7             	mov    %r14,%rdi
    ca5b:	e8 90 09 00 00       	callq  d3f0 <_ZN9benchmark5State17FinishKeepRunningEv>
    ca60:	48 8b 35 01 32 24 00 	mov    0x243201(%rip),%rsi        # 24fc68 <_ZL5count>
    ca67:	48 8d 3d c6 71 03 00 	lea    0x371c6(%rip),%rdi        # 43c34 <_IO_stdin_used+0x34>
    ca6e:	31 c0                	xor    %eax,%eax
    ca70:	e8 4b eb ff ff       	callq  b5c0 <printf@plt>
    ca75:	48 8d bc 24 c0 00 00 	lea    0xc0(%rsp),%rdi
    ca7c:	00 
    ca7d:	e8 8e ee ff ff       	callq  b910 <_ZN8dyntrace6fasttp10tracepointD1Ev@plt>
    ca82:	48 8d 7c 24 40       	lea    0x40(%rsp),%rdi
    ca87:	e8 d4 f1 ff ff       	callq  bc60 <_ZN8dyntrace6fasttp7contextD1Ev@plt>
    ca8c:	48 83 3d 34 25 24 00 	cmpq   $0x0,0x242534(%rip)        # 24efc8 <__pthread_key_create@GLIBC_2.2.5>
    ca93:	00 
    ca94:	74 12                	je     caa8 <_ZL19bm_with_tracepointsRN9benchmark5StateE+0x338>
    ca96:	b8 ff ff ff ff       	mov    $0xffffffff,%eax
    ca9b:	f0 41 0f c1 47 08    	lock xadd %eax,0x8(%r15)
    caa1:	83 f8 01             	cmp    $0x1,%eax
    caa4:	74 12                	je     cab8 <_ZL19bm_with_tracepointsRN9benchmark5StateE+0x348>
    caa6:	eb 4e                	jmp    caf6 <_ZL19bm_with_tracepointsRN9benchmark5StateE+0x386>
    caa8:	41 8b 47 08          	mov    0x8(%r15),%eax
    caac:	8d 48 ff             	lea    -0x1(%rax),%ecx
    caaf:	41 89 4f 08          	mov    %ecx,0x8(%r15)
    cab3:	83 f8 01             	cmp    $0x1,%eax
    cab6:	75 3e                	jne    caf6 <_ZL19bm_with_tracepointsRN9benchmark5StateE+0x386>
    cab8:	49 8b 07             	mov    (%r15),%rax
    cabb:	4c 89 ff             	mov    %r15,%rdi
    cabe:	ff 50 10             	callq  *0x10(%rax)
    cac1:	48 83 3d ff 24 24 00 	cmpq   $0x0,0x2424ff(%rip)        # 24efc8 <__pthread_key_create@GLIBC_2.2.5>
    cac8:	00 
    cac9:	74 12                	je     cadd <_ZL19bm_with_tracepointsRN9benchmark5StateE+0x36d>
    cacb:	b8 ff ff ff ff       	mov    $0xffffffff,%eax
    cad0:	f0 41 0f c1 47 0c    	lock xadd %eax,0xc(%r15)
    cad6:	83 f8 01             	cmp    $0x1,%eax
    cad9:	74 12                	je     caed <_ZL19bm_with_tracepointsRN9benchmark5StateE+0x37d>
    cadb:	eb 19                	jmp    caf6 <_ZL19bm_with_tracepointsRN9benchmark5StateE+0x386>
    cadd:	41 8b 47 0c          	mov    0xc(%r15),%eax
    cae1:	8d 48 ff             	lea    -0x1(%rax),%ecx
    cae4:	41 89 4f 0c          	mov    %ecx,0xc(%r15)
    cae8:	83 f8 01             	cmp    $0x1,%eax
    caeb:	75 09                	jne    caf6 <_ZL19bm_with_tracepointsRN9benchmark5StateE+0x386>
    caed:	49 8b 07             	mov    (%r15),%rax
    caf0:	4c 89 ff             	mov    %r15,%rdi
    caf3:	ff 50 18             	callq  *0x18(%rax)
    caf6:	64 48 8b 04 25 28 00 	mov    %fs:0x28,%rax
    cafd:	00 00 
    caff:	48 3b 84 24 20 01 00 	cmp    0x120(%rsp),%rax
    cb06:	00 
    cb07:	75 12                	jne    cb1b <_ZL19bm_with_tracepointsRN9benchmark5StateE+0x3ab>
    cb09:	48 81 c4 28 01 00 00 	add    $0x128,%rsp
    cb10:	5b                   	pop    %rbx
    cb11:	41 5c                	pop    %r12
    cb13:	41 5d                	pop    %r13
    cb15:	41 5e                	pop    %r14
    cb17:	41 5f                	pop    %r15
    cb19:	5d                   	pop    %rbp
    cb1a:	c3                   	retq   
    cb1b:	e8 20 ef ff ff       	callq  ba40 <__stack_chk_fail@plt>
    cb20:	48 89 c7             	mov    %rax,%rdi
    cb23:	e8 d8 01 00 00       	callq  cd00 <__clang_call_terminate>
    cb28:	49 89 c6             	mov    %rax,%r14
    cb2b:	48 8b 44 24 20       	mov    0x20(%rsp),%rax
    cb30:	48 85 c0             	test   %rax,%rax
    cb33:	74 0f                	je     cb44 <_ZL19bm_with_tracepointsRN9benchmark5StateE+0x3d4>
    cb35:	48 8d 7c 24 10       	lea    0x10(%rsp),%rdi
    cb3a:	ba 03 00 00 00       	mov    $0x3,%edx
    cb3f:	48 89 fe             	mov    %rdi,%rsi
    cb42:	ff d0                	callq  *%rax
    cb44:	48 89 9c 24 f8 00 00 	mov    %rbx,0xf8(%rsp)
    cb4b:	00 
    cb4c:	48 8b bc 24 00 01 00 	mov    0x100(%rsp),%rdi
    cb53:	00 
    cb54:	4c 39 ef             	cmp    %r13,%rdi
    cb57:	74 05                	je     cb5e <_ZL19bm_with_tracepointsRN9benchmark5StateE+0x3ee>
    cb59:	e8 42 ee ff ff       	callq  b9a0 <_ZdlPv@plt>
    cb5e:	48 8b bc 24 d8 00 00 	mov    0xd8(%rsp),%rdi
    cb65:	00 
    cb66:	4c 39 e7             	cmp    %r12,%rdi
    cb69:	0f 84 a3 00 00 00    	je     cc12 <_ZL19bm_with_tracepointsRN9benchmark5StateE+0x4a2>
    cb6f:	e8 2c ee ff ff       	callq  b9a0 <_ZdlPv@plt>
    cb74:	e9 99 00 00 00       	jmpq   cc12 <_ZL19bm_with_tracepointsRN9benchmark5StateE+0x4a2>
    cb79:	48 89 c7             	mov    %rax,%rdi
    cb7c:	e8 7f 01 00 00       	callq  cd00 <__clang_call_terminate>
    cb81:	49 89 c6             	mov    %rax,%r14
    cb84:	48 8b 5c 24 38       	mov    0x38(%rsp),%rbx
    cb89:	48 85 db             	test   %rbx,%rbx
    cb8c:	0f 84 8a 00 00 00    	je     cc1c <_ZL19bm_with_tracepointsRN9benchmark5StateE+0x4ac>
    cb92:	48 83 3d 2e 24 24 00 	cmpq   $0x0,0x24242e(%rip)        # 24efc8 <__pthread_key_create@GLIBC_2.2.5>
    cb99:	00 
    cb9a:	74 11                	je     cbad <_ZL19bm_with_tracepointsRN9benchmark5StateE+0x43d>
    cb9c:	b8 ff ff ff ff       	mov    $0xffffffff,%eax
    cba1:	f0 0f c1 43 08       	lock xadd %eax,0x8(%rbx)
    cba6:	83 f8 01             	cmp    $0x1,%eax
    cba9:	74 10                	je     cbbb <_ZL19bm_with_tracepointsRN9benchmark5StateE+0x44b>
    cbab:	eb 6f                	jmp    cc1c <_ZL19bm_with_tracepointsRN9benchmark5StateE+0x4ac>
    cbad:	8b 43 08             	mov    0x8(%rbx),%eax
    cbb0:	8d 48 ff             	lea    -0x1(%rax),%ecx
    cbb3:	89 4b 08             	mov    %ecx,0x8(%rbx)
    cbb6:	83 f8 01             	cmp    $0x1,%eax
    cbb9:	75 61                	jne    cc1c <_ZL19bm_with_tracepointsRN9benchmark5StateE+0x4ac>
    cbbb:	48 8b 03             	mov    (%rbx),%rax
    cbbe:	48 89 df             	mov    %rbx,%rdi
    cbc1:	ff 50 10             	callq  *0x10(%rax)
    cbc4:	48 83 3d fc 23 24 00 	cmpq   $0x0,0x2423fc(%rip)        # 24efc8 <__pthread_key_create@GLIBC_2.2.5>
    cbcb:	00 
    cbcc:	74 11                	je     cbdf <_ZL19bm_with_tracepointsRN9benchmark5StateE+0x46f>
    cbce:	b8 ff ff ff ff       	mov    $0xffffffff,%eax
    cbd3:	f0 0f c1 43 0c       	lock xadd %eax,0xc(%rbx)
    cbd8:	83 f8 01             	cmp    $0x1,%eax
    cbdb:	74 10                	je     cbed <_ZL19bm_with_tracepointsRN9benchmark5StateE+0x47d>
    cbdd:	eb 3d                	jmp    cc1c <_ZL19bm_with_tracepointsRN9benchmark5StateE+0x4ac>
    cbdf:	8b 43 0c             	mov    0xc(%rbx),%eax
    cbe2:	8d 48 ff             	lea    -0x1(%rax),%ecx
    cbe5:	89 4b 0c             	mov    %ecx,0xc(%rbx)
    cbe8:	83 f8 01             	cmp    $0x1,%eax
    cbeb:	75 2f                	jne    cc1c <_ZL19bm_with_tracepointsRN9benchmark5StateE+0x4ac>
    cbed:	48 8b 03             	mov    (%rbx),%rax
    cbf0:	48 89 df             	mov    %rbx,%rdi
    cbf3:	ff 50 18             	callq  *0x18(%rax)
    cbf6:	48 83 3d ca 23 24 00 	cmpq   $0x0,0x2423ca(%rip)        # 24efc8 <__pthread_key_create@GLIBC_2.2.5>
    cbfd:	00 
    cbfe:	75 26                	jne    cc26 <_ZL19bm_with_tracepointsRN9benchmark5StateE+0x4b6>
    cc00:	eb 36                	jmp    cc38 <_ZL19bm_with_tracepointsRN9benchmark5StateE+0x4c8>
    cc02:	49 89 c6             	mov    %rax,%r14
    cc05:	48 8d bc 24 c0 00 00 	lea    0xc0(%rsp),%rdi
    cc0c:	00 
    cc0d:	e8 fe ec ff ff       	callq  b910 <_ZN8dyntrace6fasttp10tracepointD1Ev@plt>
    cc12:	48 8d 7c 24 40       	lea    0x40(%rsp),%rdi
    cc17:	e8 44 f0 ff ff       	callq  bc60 <_ZN8dyntrace6fasttp7contextD1Ev@plt>
    cc1c:	48 83 3d a4 23 24 00 	cmpq   $0x0,0x2423a4(%rip)        # 24efc8 <__pthread_key_create@GLIBC_2.2.5>
    cc23:	00 
    cc24:	74 12                	je     cc38 <_ZL19bm_with_tracepointsRN9benchmark5StateE+0x4c8>
    cc26:	b8 ff ff ff ff       	mov    $0xffffffff,%eax
    cc2b:	f0 41 0f c1 47 08    	lock xadd %eax,0x8(%r15)
    cc31:	83 f8 01             	cmp    $0x1,%eax
    cc34:	74 12                	je     cc48 <_ZL19bm_with_tracepointsRN9benchmark5StateE+0x4d8>
    cc36:	eb 4e                	jmp    cc86 <_ZL19bm_with_tracepointsRN9benchmark5StateE+0x516>
    cc38:	41 8b 47 08          	mov    0x8(%r15),%eax
    cc3c:	8d 48 ff             	lea    -0x1(%rax),%ecx
    cc3f:	41 89 4f 08          	mov    %ecx,0x8(%r15)
    cc43:	83 f8 01             	cmp    $0x1,%eax
    cc46:	75 3e                	jne    cc86 <_ZL19bm_with_tracepointsRN9benchmark5StateE+0x516>
    cc48:	49 8b 07             	mov    (%r15),%rax
    cc4b:	4c 89 ff             	mov    %r15,%rdi
    cc4e:	ff 50 10             	callq  *0x10(%rax)
    cc51:	48 83 3d 6f 23 24 00 	cmpq   $0x0,0x24236f(%rip)        # 24efc8 <__pthread_key_create@GLIBC_2.2.5>
    cc58:	00 
    cc59:	74 12                	je     cc6d <_ZL19bm_with_tracepointsRN9benchmark5StateE+0x4fd>
    cc5b:	b8 ff ff ff ff       	mov    $0xffffffff,%eax
    cc60:	f0 41 0f c1 47 0c    	lock xadd %eax,0xc(%r15)
    cc66:	83 f8 01             	cmp    $0x1,%eax
    cc69:	74 12                	je     cc7d <_ZL19bm_with_tracepointsRN9benchmark5StateE+0x50d>
    cc6b:	eb 19                	jmp    cc86 <_ZL19bm_with_tracepointsRN9benchmark5StateE+0x516>
    cc6d:	41 8b 47 0c          	mov    0xc(%r15),%eax
    cc71:	8d 48 ff             	lea    -0x1(%rax),%ecx
    cc74:	41 89 4f 0c          	mov    %ecx,0xc(%r15)
    cc78:	83 f8 01             	cmp    $0x1,%eax
    cc7b:	75 09                	jne    cc86 <_ZL19bm_with_tracepointsRN9benchmark5StateE+0x516>
    cc7d:	49 8b 07             	mov    (%r15),%rax
    cc80:	4c 89 ff             	mov    %r15,%rdi
    cc83:	ff 50 18             	callq  *0x18(%rax)
    cc86:	4c 89 f7             	mov    %r14,%rdi
    cc89:	e8 92 f0 ff ff       	callq  bd20 <_Unwind_Resume@plt>
    cc8e:	66 90                	xchg   %ax,%ax

000000000000cc90 <main>:
    cc90:	53                   	push   %rbx
    cc91:	48 83 ec 10          	sub    $0x10,%rsp
    cc95:	48 89 f3             	mov    %rsi,%rbx
    cc98:	64 48 8b 04 25 28 00 	mov    %fs:0x28,%rax
    cc9f:	00 00 
    cca1:	48 89 44 24 08       	mov    %rax,0x8(%rsp)
    cca6:	89 7c 24 04          	mov    %edi,0x4(%rsp)
    ccaa:	48 8d 7c 24 04       	lea    0x4(%rsp),%rdi
    ccaf:	e8 ac 0d 00 00       	callq  da60 <_ZN9benchmark10InitializeEPiPPc>
    ccb4:	8b 7c 24 04          	mov    0x4(%rsp),%edi
    ccb8:	48 89 de             	mov    %rbx,%rsi
    ccbb:	e8 c0 0d 00 00       	callq  da80 <_ZN9benchmark27ReportUnrecognizedArgumentsEiPPc>
    ccc0:	89 c1                	mov    %eax,%ecx
    ccc2:	b8 01 00 00 00       	mov    $0x1,%eax
    ccc7:	84 c9                	test   %cl,%cl
    ccc9:	75 07                	jne    ccd2 <main+0x42>
    cccb:	e8 50 4e 00 00       	callq  11b20 <_ZN9benchmark22RunSpecifiedBenchmarksEv>
    ccd0:	31 c0                	xor    %eax,%eax
    ccd2:	64 48 8b 0c 25 28 00 	mov    %fs:0x28,%rcx
    ccd9:	00 00 
    ccdb:	48 3b 4c 24 08       	cmp    0x8(%rsp),%rcx
    cce0:	75 06                	jne    cce8 <main+0x58>
    cce2:	48 83 c4 10          	add    $0x10,%rsp
    cce6:	5b                   	pop    %rbx
    cce7:	c3                   	retq   
    cce8:	e8 53 ed ff ff       	callq  ba40 <__stack_chk_fail@plt>
    cced:	0f 1f 00             	nopl   (%rax)

000000000000ccf0 <_ZL7handlerPKvRKN8dyntrace6tracer4regsE>:
    ccf0:	48 ff 05 71 2f 24 00 	incq   0x242f71(%rip)        # 24fc68 <_ZL5count>
    ccf7:	c3                   	retq   
    ccf8:	0f 1f 84 00 00 00 00 	nopl   0x0(%rax,%rax,1)
    ccff:	00 

000000000000cd00 <__clang_call_terminate>:
    cd00:	50                   	push   %rax
    cd01:	e8 ea e9 ff ff       	callq  b6f0 <__cxa_begin_catch@plt>
    cd06:	e8 35 e9 ff ff       	callq  b640 <_ZSt9terminatev@plt>
    cd0b:	0f 1f 44 00 00       	nopl   0x0(%rax,%rax,1)

000000000000cd10 <_ZNSt23_Sp_counted_ptr_inplaceIN8dyntrace7process7processESaIS2_ELN9__gnu_cxx12_Lock_policyE2EED2Ev>:
    cd10:	c3                   	retq   
    cd11:	66 2e 0f 1f 84 00 00 	nopw   %cs:0x0(%rax,%rax,1)
    cd18:	00 00 00 
    cd1b:	0f 1f 44 00 00       	nopl   0x0(%rax,%rax,1)

000000000000cd20 <_ZNSt23_Sp_counted_ptr_inplaceIN8dyntrace7process7processESaIS2_ELN9__gnu_cxx12_Lock_policyE2EED0Ev>:
    cd20:	e9 7b ec ff ff       	jmpq   b9a0 <_ZdlPv@plt>
    cd25:	66 2e 0f 1f 84 00 00 	nopw   %cs:0x0(%rax,%rax,1)
    cd2c:	00 00 00 
    cd2f:	90                   	nop

000000000000cd30 <_ZNSt23_Sp_counted_ptr_inplaceIN8dyntrace7process7processESaIS2_ELN9__gnu_cxx12_Lock_policyE2EE10_M_disposeEv>:
    cd30:	50                   	push   %rax
    cd31:	48 8b 77 50          	mov    0x50(%rdi),%rsi
    cd35:	48 83 c7 40          	add    $0x40,%rdi
    cd39:	e8 62 00 00 00       	callq  cda0 <_ZNSt8_Rb_treeINSt7__cxx1112basic_stringIcSt11char_traitsIcESaIcEEESt4pairIKS5_N3elf3elfEESt10_Select1stISA_ESt4lessIS5_ESaISA_EE8_M_eraseEPSt13_Rb_tree_nodeISA_E>
    cd3e:	58                   	pop    %rax
    cd3f:	c3                   	retq   
    cd40:	48 89 c7             	mov    %rax,%rdi
    cd43:	e8 b8 ff ff ff       	callq  cd00 <__clang_call_terminate>
    cd48:	0f 1f 84 00 00 00 00 	nopl   0x0(%rax,%rax,1)
    cd4f:	00 

000000000000cd50 <_ZNSt23_Sp_counted_ptr_inplaceIN8dyntrace7process7processESaIS2_ELN9__gnu_cxx12_Lock_policyE2EE10_M_destroyEv>:
    cd50:	48 85 ff             	test   %rdi,%rdi
    cd53:	74 05                	je     cd5a <_ZNSt23_Sp_counted_ptr_inplaceIN8dyntrace7process7processESaIS2_ELN9__gnu_cxx12_Lock_policyE2EE10_M_destroyEv+0xa>
    cd55:	e9 46 ec ff ff       	jmpq   b9a0 <_ZdlPv@plt>
    cd5a:	c3                   	retq   
    cd5b:	0f 1f 44 00 00       	nopl   0x0(%rax,%rax,1)

000000000000cd60 <_ZNSt23_Sp_counted_ptr_inplaceIN8dyntrace7process7processESaIS2_ELN9__gnu_cxx12_Lock_policyE2EE14_M_get_deleterERKSt9type_info>:
    cd60:	53                   	push   %rbx
    cd61:	48 89 fb             	mov    %rdi,%rbx
    cd64:	48 8b 7e 08          	mov    0x8(%rsi),%rdi
    cd68:	48 8d 05 e1 6e 03 00 	lea    0x36ee1(%rip),%rax        # 43c50 <_ZTSSt19_Sp_make_shared_tag>
    cd6f:	48 39 c7             	cmp    %rax,%rdi
    cd72:	74 23                	je     cd97 <_ZNSt23_Sp_counted_ptr_inplaceIN8dyntrace7process7processESaIS2_ELN9__gnu_cxx12_Lock_policyE2EE14_M_get_deleterERKSt9type_info+0x37>
    cd74:	80 3f 2a             	cmpb   $0x2a,(%rdi)
    cd77:	75 07                	jne    cd80 <_ZNSt23_Sp_counted_ptr_inplaceIN8dyntrace7process7processESaIS2_ELN9__gnu_cxx12_Lock_policyE2EE14_M_get_deleterERKSt9type_info+0x20>
    cd79:	31 db                	xor    %ebx,%ebx
    cd7b:	48 89 d8             	mov    %rbx,%rax
    cd7e:	5b                   	pop    %rbx
    cd7f:	c3                   	retq   
    cd80:	48 8d 35 c9 6e 03 00 	lea    0x36ec9(%rip),%rsi        # 43c50 <_ZTSSt19_Sp_make_shared_tag>
    cd87:	e8 d4 ed ff ff       	callq  bb60 <strcmp@plt>
    cd8c:	85 c0                	test   %eax,%eax
    cd8e:	74 07                	je     cd97 <_ZNSt23_Sp_counted_ptr_inplaceIN8dyntrace7process7processESaIS2_ELN9__gnu_cxx12_Lock_policyE2EE14_M_get_deleterERKSt9type_info+0x37>
    cd90:	31 db                	xor    %ebx,%ebx
    cd92:	48 89 d8             	mov    %rbx,%rax
    cd95:	5b                   	pop    %rbx
    cd96:	c3                   	retq   
    cd97:	48 83 c3 10          	add    $0x10,%rbx
    cd9b:	48 89 d8             	mov    %rbx,%rax
    cd9e:	5b                   	pop    %rbx
    cd9f:	c3                   	retq   

000000000000cda0 <_ZNSt8_Rb_treeINSt7__cxx1112basic_stringIcSt11char_traitsIcESaIcEEESt4pairIKS5_N3elf3elfEESt10_Select1stISA_ESt4lessIS5_ESaISA_EE8_M_eraseEPSt13_Rb_tree_nodeISA_E>:
    cda0:	41 57                	push   %r15
    cda2:	41 56                	push   %r14
    cda4:	41 55                	push   %r13
    cda6:	41 54                	push   %r12
    cda8:	53                   	push   %rbx
    cda9:	48 89 f3             	mov    %rsi,%rbx
    cdac:	49 89 fe             	mov    %rdi,%r14
    cdaf:	48 85 db             	test   %rbx,%rbx
    cdb2:	0f 84 ae 00 00 00    	je     ce66 <_ZNSt8_Rb_treeINSt7__cxx1112basic_stringIcSt11char_traitsIcESaIcEEESt4pairIKS5_N3elf3elfEESt10_Select1stISA_ESt4lessIS5_ESaISA_EE8_M_eraseEPSt13_Rb_tree_nodeISA_E+0xc6>
    cdb8:	4c 8b 25 09 22 24 00 	mov    0x242209(%rip),%r12        # 24efc8 <__pthread_key_create@GLIBC_2.2.5>
    cdbf:	90                   	nop
    cdc0:	48 8b 73 18          	mov    0x18(%rbx),%rsi
    cdc4:	4c 89 f7             	mov    %r14,%rdi
    cdc7:	e8 d4 ff ff ff       	callq  cda0 <_ZNSt8_Rb_treeINSt7__cxx1112basic_stringIcSt11char_traitsIcESaIcEEESt4pairIKS5_N3elf3elfEESt10_Select1stISA_ESt4lessIS5_ESaISA_EE8_M_eraseEPSt13_Rb_tree_nodeISA_E>
    cdcc:	4c 8b 6b 10          	mov    0x10(%rbx),%r13
    cdd0:	4c 8b 7b 48          	mov    0x48(%rbx),%r15
    cdd4:	4d 85 ff             	test   %r15,%r15
    cdd7:	74 67                	je     ce40 <_ZNSt8_Rb_treeINSt7__cxx1112basic_stringIcSt11char_traitsIcESaIcEEESt4pairIKS5_N3elf3elfEESt10_Select1stISA_ESt4lessIS5_ESaISA_EE8_M_eraseEPSt13_Rb_tree_nodeISA_E+0xa0>
    cdd9:	4d 85 e4             	test   %r12,%r12
    cddc:	74 12                	je     cdf0 <_ZNSt8_Rb_treeINSt7__cxx1112basic_stringIcSt11char_traitsIcESaIcEEESt4pairIKS5_N3elf3elfEESt10_Select1stISA_ESt4lessIS5_ESaISA_EE8_M_eraseEPSt13_Rb_tree_nodeISA_E+0x50>
    cdde:	b8 ff ff ff ff       	mov    $0xffffffff,%eax
    cde3:	f0 41 0f c1 47 08    	lock xadd %eax,0x8(%r15)
    cde9:	83 f8 01             	cmp    $0x1,%eax
    cdec:	74 12                	je     ce00 <_ZNSt8_Rb_treeINSt7__cxx1112basic_stringIcSt11char_traitsIcESaIcEEESt4pairIKS5_N3elf3elfEESt10_Select1stISA_ESt4lessIS5_ESaISA_EE8_M_eraseEPSt13_Rb_tree_nodeISA_E+0x60>
    cdee:	eb 50                	jmp    ce40 <_ZNSt8_Rb_treeINSt7__cxx1112basic_stringIcSt11char_traitsIcESaIcEEESt4pairIKS5_N3elf3elfEESt10_Select1stISA_ESt4lessIS5_ESaISA_EE8_M_eraseEPSt13_Rb_tree_nodeISA_E+0xa0>
    cdf0:	41 8b 47 08          	mov    0x8(%r15),%eax
    cdf4:	8d 48 ff             	lea    -0x1(%rax),%ecx
    cdf7:	41 89 4f 08          	mov    %ecx,0x8(%r15)
    cdfb:	83 f8 01             	cmp    $0x1,%eax
    cdfe:	75 40                	jne    ce40 <_ZNSt8_Rb_treeINSt7__cxx1112basic_stringIcSt11char_traitsIcESaIcEEESt4pairIKS5_N3elf3elfEESt10_Select1stISA_ESt4lessIS5_ESaISA_EE8_M_eraseEPSt13_Rb_tree_nodeISA_E+0xa0>
    ce00:	49 8b 07             	mov    (%r15),%rax
    ce03:	4c 89 ff             	mov    %r15,%rdi
    ce06:	ff 50 10             	callq  *0x10(%rax)
    ce09:	4d 85 e4             	test   %r12,%r12
    ce0c:	74 12                	je     ce20 <_ZNSt8_Rb_treeINSt7__cxx1112basic_stringIcSt11char_traitsIcESaIcEEESt4pairIKS5_N3elf3elfEESt10_Select1stISA_ESt4lessIS5_ESaISA_EE8_M_eraseEPSt13_Rb_tree_nodeISA_E+0x80>
    ce0e:	b8 ff ff ff ff       	mov    $0xffffffff,%eax
    ce13:	f0 41 0f c1 47 0c    	lock xadd %eax,0xc(%r15)
    ce19:	83 f8 01             	cmp    $0x1,%eax
    ce1c:	74 12                	je     ce30 <_ZNSt8_Rb_treeINSt7__cxx1112basic_stringIcSt11char_traitsIcESaIcEEESt4pairIKS5_N3elf3elfEESt10_Select1stISA_ESt4lessIS5_ESaISA_EE8_M_eraseEPSt13_Rb_tree_nodeISA_E+0x90>
    ce1e:	eb 20                	jmp    ce40 <_ZNSt8_Rb_treeINSt7__cxx1112basic_stringIcSt11char_traitsIcESaIcEEESt4pairIKS5_N3elf3elfEESt10_Select1stISA_ESt4lessIS5_ESaISA_EE8_M_eraseEPSt13_Rb_tree_nodeISA_E+0xa0>
    ce20:	41 8b 47 0c          	mov    0xc(%r15),%eax
    ce24:	8d 48 ff             	lea    -0x1(%rax),%ecx
    ce27:	41 89 4f 0c          	mov    %ecx,0xc(%r15)
    ce2b:	83 f8 01             	cmp    $0x1,%eax
    ce2e:	75 10                	jne    ce40 <_ZNSt8_Rb_treeINSt7__cxx1112basic_stringIcSt11char_traitsIcESaIcEEESt4pairIKS5_N3elf3elfEESt10_Select1stISA_ESt4lessIS5_ESaISA_EE8_M_eraseEPSt13_Rb_tree_nodeISA_E+0xa0>
    ce30:	49 8b 07             	mov    (%r15),%rax
    ce33:	4c 89 ff             	mov    %r15,%rdi
    ce36:	ff 50 18             	callq  *0x18(%rax)
    ce39:	0f 1f 80 00 00 00 00 	nopl   0x0(%rax)
    ce40:	48 8b 7b 20          	mov    0x20(%rbx),%rdi
    ce44:	48 8d 43 30          	lea    0x30(%rbx),%rax
    ce48:	48 39 c7             	cmp    %rax,%rdi
    ce4b:	74 05                	je     ce52 <_ZNSt8_Rb_treeINSt7__cxx1112basic_stringIcSt11char_traitsIcESaIcEEESt4pairIKS5_N3elf3elfEESt10_Select1stISA_ESt4lessIS5_ESaISA_EE8_M_eraseEPSt13_Rb_tree_nodeISA_E+0xb2>
    ce4d:	e8 4e eb ff ff       	callq  b9a0 <_ZdlPv@plt>
    ce52:	48 89 df             	mov    %rbx,%rdi
    ce55:	e8 46 eb ff ff       	callq  b9a0 <_ZdlPv@plt>
    ce5a:	4d 85 ed             	test   %r13,%r13
    ce5d:	4c 89 eb             	mov    %r13,%rbx
    ce60:	0f 85 5a ff ff ff    	jne    cdc0 <_ZNSt8_Rb_treeINSt7__cxx1112basic_stringIcSt11char_traitsIcESaIcEEESt4pairIKS5_N3elf3elfEESt10_Select1stISA_ESt4lessIS5_ESaISA_EE8_M_eraseEPSt13_Rb_tree_nodeISA_E+0x20>
    ce66:	5b                   	pop    %rbx
    ce67:	41 5c                	pop    %r12
    ce69:	41 5d                	pop    %r13
    ce6b:	41 5e                	pop    %r14
    ce6d:	41 5f                	pop    %r15
    ce6f:	c3                   	retq   

000000000000ce70 <_ZNSt17_Function_handlerIFvPKvRKN8dyntrace6tracer4regsEEPS7_E9_M_invokeERKSt9_Any_dataOS1_S6_>:
    ce70:	48 8b 07             	mov    (%rdi),%rax
    ce73:	48 8b 3e             	mov    (%rsi),%rdi
    ce76:	48 89 d6             	mov    %rdx,%rsi
    ce79:	ff e0                	jmpq   *%rax
    ce7b:	0f 1f 44 00 00       	nopl   0x0(%rax,%rax,1)

000000000000ce80 <_ZNSt14_Function_base13_Base_managerIPFvPKvRKN8dyntrace6tracer4regsEEE10_M_managerERSt9_Any_dataRKSB_St18_Manager_operation>:
    ce80:	83 fa 02             	cmp    $0x2,%edx
    ce83:	74 12                	je     ce97 <_ZNSt14_Function_base13_Base_managerIPFvPKvRKN8dyntrace6tracer4regsEEE10_M_managerERSt9_Any_dataRKSB_St18_Manager_operation+0x17>
    ce85:	83 fa 01             	cmp    $0x1,%edx
    ce88:	74 16                	je     cea0 <_ZNSt14_Function_base13_Base_managerIPFvPKvRKN8dyntrace6tracer4regsEEE10_M_managerERSt9_Any_dataRKSB_St18_Manager_operation+0x20>
    ce8a:	85 d2                	test   %edx,%edx
    ce8c:	75 0f                	jne    ce9d <_ZNSt14_Function_base13_Base_managerIPFvPKvRKN8dyntrace6tracer4regsEEE10_M_managerERSt9_Any_dataRKSB_St18_Manager_operation+0x1d>
    ce8e:	48 8d 05 3b 1c 24 00 	lea    0x241c3b(%rip),%rax        # 24ead0 <_ZTVN10__cxxabiv119__pointer_type_infoE@CXXABI_1.3>
    ce95:	eb 03                	jmp    ce9a <_ZNSt14_Function_base13_Base_managerIPFvPKvRKN8dyntrace6tracer4regsEEE10_M_managerERSt9_Any_dataRKSB_St18_Manager_operation+0x1a>
    ce97:	48 8b 06             	mov    (%rsi),%rax
    ce9a:	48 89 07             	mov    %rax,(%rdi)
    ce9d:	31 c0                	xor    %eax,%eax
    ce9f:	c3                   	retq   
    cea0:	48 89 37             	mov    %rsi,(%rdi)
    cea3:	31 c0                	xor    %eax,%eax
    cea5:	c3                   	retq   
    cea6:	66 2e 0f 1f 84 00 00 	nopw   %cs:0x0(%rax,%rax,1)
    cead:	00 00 00 

000000000000ceb0 <_ZN9benchmark8internal12_GLOBAL__N_114CreateReporterERKNSt7__cxx1112basic_stringIcSt11char_traitsIcESaIcEEENS_15ConsoleReporter13OutputOptionsE>:
    ceb0:	41 54                	push   %r12
    ceb2:	55                   	push   %rbp
    ceb3:	48 89 fd             	mov    %rdi,%rbp
    ceb6:	53                   	push   %rbx
    ceb7:	48 89 f3             	mov    %rsi,%rbx
    ceba:	48 8d 35 cf 6e 03 00 	lea    0x36ecf(%rip),%rsi        # 43d90 <_ZTSFvPKvRKN8dyntrace6tracer4regsEE+0x20>
    cec1:	48 89 df             	mov    %rbx,%rdi
    cec4:	41 89 d4             	mov    %edx,%r12d
    cec7:	e8 84 e7 ff ff       	callq  b650 <_ZNKSt7__cxx1112basic_stringIcSt11char_traitsIcESaIcEE7compareEPKc@plt>
    cecc:	85 c0                	test   %eax,%eax
    cece:	75 60                	jne    cf30 <_ZN9benchmark8internal12_GLOBAL__N_114CreateReporterERKNSt7__cxx1112basic_stringIcSt11char_traitsIcESaIcEEENS_15ConsoleReporter13OutputOptionsE+0x80>
    ced0:	bf 60 00 00 00       	mov    $0x60,%edi
    ced5:	e8 f6 ea ff ff       	callq  b9d0 <_Znwm@plt>
    ceda:	48 89 c7             	mov    %rax,%rdi
    cedd:	48 89 c3             	mov    %rax,%rbx
    cee0:	e8 bb a8 02 00       	callq  377a0 <_ZN9benchmark17BenchmarkReporterC1Ev>
    cee5:	48 8d 05 b4 15 24 00 	lea    0x2415b4(%rip),%rax        # 24e4a0 <_ZTVN9benchmark15ConsoleReporterE+0x10>
    ceec:	44 89 63 18          	mov    %r12d,0x18(%rbx)
    cef0:	48 c7 43 20 00 00 00 	movq   $0x0,0x20(%rbx)
    cef7:	00 
    cef8:	c7 43 30 00 00 00 00 	movl   $0x0,0x30(%rbx)
    ceff:	48 c7 43 38 00 00 00 	movq   $0x0,0x38(%rbx)
    cf06:	00 
    cf07:	48 89 03             	mov    %rax,(%rbx)
    cf0a:	48 8d 43 30          	lea    0x30(%rbx),%rax
    cf0e:	48 c7 43 50 00 00 00 	movq   $0x0,0x50(%rbx)
    cf15:	00 
    cf16:	c6 43 58 00          	movb   $0x0,0x58(%rbx)
    cf1a:	48 89 5d 00          	mov    %rbx,0x0(%rbp)
    cf1e:	48 89 43 40          	mov    %rax,0x40(%rbx)
    cf22:	48 89 43 48          	mov    %rax,0x48(%rbx)
    cf26:	48 89 e8             	mov    %rbp,%rax
    cf29:	5b                   	pop    %rbx
    cf2a:	5d                   	pop    %rbp
    cf2b:	41 5c                	pop    %r12
    cf2d:	c3                   	retq   
    cf2e:	66 90                	xchg   %ax,%ax
    cf30:	48 8d 35 61 6e 03 00 	lea    0x36e61(%rip),%rsi        # 43d98 <_ZTSFvPKvRKN8dyntrace6tracer4regsEE+0x28>
    cf37:	48 89 df             	mov    %rbx,%rdi
    cf3a:	e8 11 e7 ff ff       	callq  b650 <_ZNKSt7__cxx1112basic_stringIcSt11char_traitsIcESaIcEE7compareEPKc@plt>
    cf3f:	85 c0                	test   %eax,%eax
    cf41:	74 6d                	je     cfb0 <_ZN9benchmark8internal12_GLOBAL__N_114CreateReporterERKNSt7__cxx1112basic_stringIcSt11char_traitsIcESaIcEEENS_15ConsoleReporter13OutputOptionsE+0x100>
    cf43:	48 8d 35 53 6e 03 00 	lea    0x36e53(%rip),%rsi        # 43d9d <_ZTSFvPKvRKN8dyntrace6tracer4regsEE+0x2d>
    cf4a:	48 89 df             	mov    %rbx,%rdi
    cf4d:	e8 fe e6 ff ff       	callq  b650 <_ZNKSt7__cxx1112basic_stringIcSt11char_traitsIcESaIcEE7compareEPKc@plt>
    cf52:	85 c0                	test   %eax,%eax
    cf54:	0f 85 85 00 00 00    	jne    cfdf <_ZN9benchmark8internal12_GLOBAL__N_114CreateReporterERKNSt7__cxx1112basic_stringIcSt11char_traitsIcESaIcEEENS_15ConsoleReporter13OutputOptionsE+0x12f>
    cf5a:	bf 50 00 00 00       	mov    $0x50,%edi
    cf5f:	e8 6c ea ff ff       	callq  b9d0 <_Znwm@plt>
    cf64:	48 89 c7             	mov    %rax,%rdi
    cf67:	48 89 c3             	mov    %rax,%rbx
    cf6a:	e8 31 a8 02 00       	callq  377a0 <_ZN9benchmark17BenchmarkReporterC1Ev>
    cf6f:	48 8d 05 72 15 24 00 	lea    0x241572(%rip),%rax        # 24e4e8 <_ZTVN9benchmark11CSVReporterE+0x10>
    cf76:	c6 43 18 00          	movb   $0x0,0x18(%rbx)
    cf7a:	c7 43 28 00 00 00 00 	movl   $0x0,0x28(%rbx)
    cf81:	48 c7 43 30 00 00 00 	movq   $0x0,0x30(%rbx)
    cf88:	00 
    cf89:	48 c7 43 48 00 00 00 	movq   $0x0,0x48(%rbx)
    cf90:	00 
    cf91:	48 89 03             	mov    %rax,(%rbx)
    cf94:	48 8d 43 28          	lea    0x28(%rbx),%rax
    cf98:	48 89 5d 00          	mov    %rbx,0x0(%rbp)
    cf9c:	48 89 43 38          	mov    %rax,0x38(%rbx)
    cfa0:	48 89 43 40          	mov    %rax,0x40(%rbx)
    cfa4:	48 89 e8             	mov    %rbp,%rax
    cfa7:	5b                   	pop    %rbx
    cfa8:	5d                   	pop    %rbp
    cfa9:	41 5c                	pop    %r12
    cfab:	c3                   	retq   
    cfac:	0f 1f 40 00          	nopl   0x0(%rax)
    cfb0:	bf 20 00 00 00       	mov    $0x20,%edi
    cfb5:	e8 16 ea ff ff       	callq  b9d0 <_Znwm@plt>
    cfba:	48 89 c7             	mov    %rax,%rdi
    cfbd:	48 89 c3             	mov    %rax,%rbx
    cfc0:	e8 db a7 02 00       	callq  377a0 <_ZN9benchmark17BenchmarkReporterC1Ev>
    cfc5:	48 8d 05 54 15 24 00 	lea    0x241554(%rip),%rax        # 24e520 <_ZTVN9benchmark12JSONReporterE+0x10>
    cfcc:	c6 43 18 01          	movb   $0x1,0x18(%rbx)
    cfd0:	48 89 5d 00          	mov    %rbx,0x0(%rbp)
    cfd4:	48 89 03             	mov    %rax,(%rbx)
    cfd7:	48 89 e8             	mov    %rbp,%rax
    cfda:	5b                   	pop    %rbx
    cfdb:	5d                   	pop    %rbp
    cfdc:	41 5c                	pop    %r12
    cfde:	c3                   	retq   
    cfdf:	48 8d 35 bb 6d 03 00 	lea    0x36dbb(%rip),%rsi        # 43da1 <_ZTSFvPKvRKN8dyntrace6tracer4regsEE+0x31>
    cfe6:	48 8d 3d 53 2b 24 00 	lea    0x242b53(%rip),%rdi        # 24fb40 <_ZSt4cerr@@GLIBCXX_3.4>
    cfed:	ba 14 00 00 00       	mov    $0x14,%edx
    cff2:	e8 69 ea ff ff       	callq  ba60 <_ZSt16__ostream_insertIcSt11char_traitsIcEERSt13basic_ostreamIT_T0_ES6_PKS3_l@plt>
    cff7:	48 8b 53 08          	mov    0x8(%rbx),%rdx
    cffb:	48 8b 33             	mov    (%rbx),%rsi
    cffe:	48 8d 3d 3b 2b 24 00 	lea    0x242b3b(%rip),%rdi        # 24fb40 <_ZSt4cerr@@GLIBCXX_3.4>
    d005:	e8 56 ea ff ff       	callq  ba60 <_ZSt16__ostream_insertIcSt11char_traitsIcEERSt13basic_ostreamIT_T0_ES6_PKS3_l@plt>
    d00a:	48 8d 35 a5 6d 03 00 	lea    0x36da5(%rip),%rsi        # 43db6 <_ZTSFvPKvRKN8dyntrace6tracer4regsEE+0x46>
    d011:	48 89 c7             	mov    %rax,%rdi
    d014:	e8 a7 e9 ff ff       	callq  b9c0 <_ZStlsISt11char_traitsIcEERSt13basic_ostreamIcT_ES5_PKc@plt>
    d019:	bf 01 00 00 00       	mov    $0x1,%edi
    d01e:	e8 7d ea ff ff       	callq  baa0 <exit@plt>
    d023:	48 89 c5             	mov    %rax,%rbp
    d026:	48 89 df             	mov    %rbx,%rdi
    d029:	e8 72 e9 ff ff       	callq  b9a0 <_ZdlPv@plt>
    d02e:	48 89 ef             	mov    %rbp,%rdi
    d031:	e8 ea ec ff ff       	callq  bd20 <_Unwind_Resume@plt>
    d036:	eb eb                	jmp    d023 <_ZN9benchmark8internal12_GLOBAL__N_114CreateReporterERKNSt7__cxx1112basic_stringIcSt11char_traitsIcESaIcEEENS_15ConsoleReporter13OutputOptionsE+0x173>
    d038:	eb e9                	jmp    d023 <_ZN9benchmark8internal12_GLOBAL__N_114CreateReporterERKNSt7__cxx1112basic_stringIcSt11char_traitsIcESaIcEEENS_15ConsoleReporter13OutputOptionsE+0x173>
    d03a:	66 0f 1f 44 00 00    	nopw   0x0(%rax,%rax,1)

000000000000d040 <_ZN9benchmark8internal14UseCharPointerEPVKc>:
    d040:	f3 c3                	repz retq 
    d042:	0f 1f 40 00          	nopl   0x0(%rax)
    d046:	66 2e 0f 1f 84 00 00 	nopw   %cs:0x0(%rax,%rax,1)
    d04d:	00 00 00 

000000000000d050 <_ZN9benchmark5State11PauseTimingEv>:
    d050:	53                   	push   %rbx
    d051:	0f b6 05 30 2d 24 00 	movzbl 0x242d30(%rip),%eax        # 24fd88 <_ZGVZN9benchmark8internal18GetNullLogInstanceEvE3log>
    d058:	48 89 fb             	mov    %rdi,%rbx
    d05b:	84 c0                	test   %al,%al
    d05d:	74 61                	je     d0c0 <_ZN9benchmark5State11PauseTimingEv+0x70>
    d05f:	48 8b 9b 80 00 00 00 	mov    0x80(%rbx),%rbx
    d066:	0f b6 05 1b 2d 24 00 	movzbl 0x242d1b(%rip),%eax        # 24fd88 <_ZGVZN9benchmark8internal18GetNullLogInstanceEvE3log>
    d06d:	84 c0                	test   %al,%al
    d06f:	74 7f                	je     d0f0 <_ZN9benchmark5State11PauseTimingEv+0xa0>
    d071:	c6 03 00             	movb   $0x0,(%rbx)
    d074:	e8 b7 ea ff ff       	callq  bb30 <_ZNSt6chrono3_V212steady_clock3nowEv@plt>
    d079:	66 0f ef c0          	pxor   %xmm0,%xmm0
    d07d:	f2 48 0f 2a c0       	cvtsi2sd %rax,%xmm0
    d082:	f2 0f 5e 05 be 72 03 	divsd  0x372be(%rip),%xmm0        # 44348 <_ZTSNSt6thread11_State_implINS_8_InvokerISt5tupleIJPFvPKN9benchmark8internal9Benchmark8InstanceEmiPNS4_13ThreadManagerEES8_miSA_EEEEEE+0x88>
    d089:	00 
    d08a:	f2 0f 5c 43 08       	subsd  0x8(%rbx),%xmm0
    d08f:	f2 0f 58 43 18       	addsd  0x18(%rbx),%xmm0
    d094:	f2 0f 11 43 18       	movsd  %xmm0,0x18(%rbx)
    d099:	e8 c2 66 03 00       	callq  43760 <_ZN9benchmark14ThreadCPUUsageEv>
    d09e:	f2 0f 5c 43 10       	subsd  0x10(%rbx),%xmm0
    d0a3:	66 0f ef c9          	pxor   %xmm1,%xmm1
    d0a7:	f2 0f 5f c8          	maxsd  %xmm0,%xmm1
    d0ab:	f2 0f 10 43 20       	movsd  0x20(%rbx),%xmm0
    d0b0:	f2 0f 58 c1          	addsd  %xmm1,%xmm0
    d0b4:	f2 0f 11 43 20       	movsd  %xmm0,0x20(%rbx)
    d0b9:	5b                   	pop    %rbx
    d0ba:	c3                   	retq   
    d0bb:	0f 1f 44 00 00       	nopl   0x0(%rax,%rax,1)
    d0c0:	48 8d 3d c1 2c 24 00 	lea    0x242cc1(%rip),%rdi        # 24fd88 <_ZGVZN9benchmark8internal18GetNullLogInstanceEvE3log>
    d0c7:	e8 74 ec ff ff       	callq  bd40 <__cxa_guard_acquire@plt>
    d0cc:	85 c0                	test   %eax,%eax
    d0ce:	74 8f                	je     d05f <_ZN9benchmark5State11PauseTimingEv+0xf>
    d0d0:	48 8d 3d b1 2c 24 00 	lea    0x242cb1(%rip),%rdi        # 24fd88 <_ZGVZN9benchmark8internal18GetNullLogInstanceEvE3log>
    d0d7:	48 c7 05 ae 2c 24 00 	movq   $0x0,0x242cae(%rip)        # 24fd90 <_ZZN9benchmark8internal18GetNullLogInstanceEvE3log>
    d0de:	00 00 00 00 
    d0e2:	e8 49 e7 ff ff       	callq  b830 <__cxa_guard_release@plt>
    d0e7:	e9 73 ff ff ff       	jmpq   d05f <_ZN9benchmark5State11PauseTimingEv+0xf>
    d0ec:	0f 1f 40 00          	nopl   0x0(%rax)
    d0f0:	48 8d 3d 91 2c 24 00 	lea    0x242c91(%rip),%rdi        # 24fd88 <_ZGVZN9benchmark8internal18GetNullLogInstanceEvE3log>
    d0f7:	e8 44 ec ff ff       	callq  bd40 <__cxa_guard_acquire@plt>
    d0fc:	85 c0                	test   %eax,%eax
    d0fe:	0f 84 6d ff ff ff    	je     d071 <_ZN9benchmark5State11PauseTimingEv+0x21>
    d104:	48 8d 3d 7d 2c 24 00 	lea    0x242c7d(%rip),%rdi        # 24fd88 <_ZGVZN9benchmark8internal18GetNullLogInstanceEvE3log>
    d10b:	48 c7 05 7a 2c 24 00 	movq   $0x0,0x242c7a(%rip)        # 24fd90 <_ZZN9benchmark8internal18GetNullLogInstanceEvE3log>
    d112:	00 00 00 00 
    d116:	e8 15 e7 ff ff       	callq  b830 <__cxa_guard_release@plt>
    d11b:	e9 51 ff ff ff       	jmpq   d071 <_ZN9benchmark5State11PauseTimingEv+0x21>

000000000000d120 <_ZN9benchmark5State12ResumeTimingEv>:
    d120:	53                   	push   %rbx
    d121:	0f b6 05 60 2c 24 00 	movzbl 0x242c60(%rip),%eax        # 24fd88 <_ZGVZN9benchmark8internal18GetNullLogInstanceEvE3log>
    d128:	48 89 fb             	mov    %rdi,%rbx
    d12b:	84 c0                	test   %al,%al
    d12d:	74 31                	je     d160 <_ZN9benchmark5State12ResumeTimingEv+0x40>
    d12f:	48 8b 9b 80 00 00 00 	mov    0x80(%rbx),%rbx
    d136:	c6 03 01             	movb   $0x1,(%rbx)
    d139:	e8 f2 e9 ff ff       	callq  bb30 <_ZNSt6chrono3_V212steady_clock3nowEv@plt>
    d13e:	66 0f ef c0          	pxor   %xmm0,%xmm0
    d142:	f2 48 0f 2a c0       	cvtsi2sd %rax,%xmm0
    d147:	f2 0f 5e 05 f9 71 03 	divsd  0x371f9(%rip),%xmm0        # 44348 <_ZTSNSt6thread11_State_implINS_8_InvokerISt5tupleIJPFvPKN9benchmark8internal9Benchmark8InstanceEmiPNS4_13ThreadManagerEES8_miSA_EEEEEE+0x88>
    d14e:	00 
    d14f:	f2 0f 11 43 08       	movsd  %xmm0,0x8(%rbx)
    d154:	e8 07 66 03 00       	callq  43760 <_ZN9benchmark14ThreadCPUUsageEv>
    d159:	f2 0f 11 43 10       	movsd  %xmm0,0x10(%rbx)
    d15e:	5b                   	pop    %rbx
    d15f:	c3                   	retq   
    d160:	48 8d 3d 21 2c 24 00 	lea    0x242c21(%rip),%rdi        # 24fd88 <_ZGVZN9benchmark8internal18GetNullLogInstanceEvE3log>
    d167:	e8 d4 eb ff ff       	callq  bd40 <__cxa_guard_acquire@plt>
    d16c:	85 c0                	test   %eax,%eax
    d16e:	74 bf                	je     d12f <_ZN9benchmark5State12ResumeTimingEv+0xf>
    d170:	48 8d 3d 11 2c 24 00 	lea    0x242c11(%rip),%rdi        # 24fd88 <_ZGVZN9benchmark8internal18GetNullLogInstanceEvE3log>
    d177:	48 c7 05 0e 2c 24 00 	movq   $0x0,0x242c0e(%rip)        # 24fd90 <_ZZN9benchmark8internal18GetNullLogInstanceEvE3log>
    d17e:	00 00 00 00 
    d182:	e8 a9 e6 ff ff       	callq  b830 <__cxa_guard_release@plt>
    d187:	eb a6                	jmp    d12f <_ZN9benchmark5State12ResumeTimingEv+0xf>
    d189:	90                   	nop
    d18a:	66 0f 1f 44 00 00    	nopw   0x0(%rax,%rax,1)

000000000000d190 <_ZN9benchmark5State16SetIterationTimeEd>:
    d190:	48 8b 87 80 00 00 00 	mov    0x80(%rdi),%rax
    d197:	f2 0f 58 40 28       	addsd  0x28(%rax),%xmm0
    d19c:	f2 0f 11 40 28       	movsd  %xmm0,0x28(%rax)
    d1a1:	c3                   	retq   
    d1a2:	0f 1f 40 00          	nopl   0x0(%rax)
    d1a6:	66 2e 0f 1f 84 00 00 	nopw   %cs:0x0(%rax,%rax,1)
    d1ad:	00 00 00 

000000000000d1b0 <_ZN9benchmark5State16StartKeepRunningEv>:
    d1b0:	41 57                	push   %r15
    d1b2:	41 56                	push   %r14
    d1b4:	41 55                	push   %r13
    d1b6:	41 54                	push   %r12
    d1b8:	49 89 fc             	mov    %rdi,%r12
    d1bb:	55                   	push   %rbp
    d1bc:	53                   	push   %rbx
    d1bd:	48 83 ec 28          	sub    $0x28,%rsp
    d1c1:	64 48 8b 04 25 28 00 	mov    %fs:0x28,%rax
    d1c8:	00 00 
    d1ca:	48 89 44 24 18       	mov    %rax,0x18(%rsp)
    d1cf:	31 c0                	xor    %eax,%eax
    d1d1:	0f b6 05 b0 2b 24 00 	movzbl 0x242bb0(%rip),%eax        # 24fd88 <_ZGVZN9benchmark8internal18GetNullLogInstanceEvE3log>
    d1d8:	84 c0                	test   %al,%al
    d1da:	0f 84 30 01 00 00    	je     d310 <_ZN9benchmark5State16StartKeepRunningEv+0x160>
    d1e0:	49 8b 9c 24 88 00 00 	mov    0x88(%r12),%rbx
    d1e7:	00 
    d1e8:	41 c6 04 24 01       	movb   $0x1,(%r12)
    d1ed:	c6 44 24 08 00       	movb   $0x0,0x8(%rsp)
    d1f2:	48 8d bb d8 00 00 00 	lea    0xd8(%rbx),%rdi
    d1f9:	48 85 ff             	test   %rdi,%rdi
    d1fc:	48 89 3c 24          	mov    %rdi,(%rsp)
    d200:	0f 84 df 01 00 00    	je     d3e5 <_ZN9benchmark5State16StartKeepRunningEv+0x235>
    d206:	4c 8b 35 bb 1d 24 00 	mov    0x241dbb(%rip),%r14        # 24efc8 <__pthread_key_create@GLIBC_2.2.5>
    d20d:	4d 85 f6             	test   %r14,%r14
    d210:	74 0d                	je     d21f <_ZN9benchmark5State16StartKeepRunningEv+0x6f>
    d212:	e8 d9 e9 ff ff       	callq  bbf0 <pthread_mutex_lock@plt>
    d217:	85 c0                	test   %eax,%eax
    d219:	0f 85 ba 01 00 00    	jne    d3d9 <_ZN9benchmark5State16StartKeepRunningEv+0x229>
    d21f:	c6 44 24 08 01       	movb   $0x1,0x8(%rsp)
    d224:	0f b6 05 5d 2b 24 00 	movzbl 0x242b5d(%rip),%eax        # 24fd88 <_ZGVZN9benchmark8internal18GetNullLogInstanceEvE3log>
    d22b:	84 c0                	test   %al,%al
    d22d:	0f 84 0d 01 00 00    	je     d340 <_ZN9benchmark5State16StartKeepRunningEv+0x190>
    d233:	8b 83 38 01 00 00    	mov    0x138(%rbx),%eax
    d239:	8b ab 34 01 00 00    	mov    0x134(%rbx),%ebp
    d23f:	4c 8d ab 00 01 00 00 	lea    0x100(%rbx),%r13
    d246:	83 c0 01             	add    $0x1,%eax
    d249:	3b 83 30 01 00 00    	cmp    0x130(%rbx),%eax
    d24f:	89 83 38 01 00 00    	mov    %eax,0x138(%rbx)
    d255:	7d 4b                	jge    d2a2 <_ZN9benchmark5State16StartKeepRunningEv+0xf2>
    d257:	49 89 e7             	mov    %rsp,%r15
    d25a:	eb 12                	jmp    d26e <_ZN9benchmark5State16StartKeepRunningEv+0xbe>
    d25c:	0f 1f 40 00          	nopl   0x0(%rax)
    d260:	8b 93 30 01 00 00    	mov    0x130(%rbx),%edx
    d266:	39 93 38 01 00 00    	cmp    %edx,0x138(%rbx)
    d26c:	74 32                	je     d2a0 <_ZN9benchmark5State16StartKeepRunningEv+0xf0>
    d26e:	4c 89 fe             	mov    %r15,%rsi
    d271:	4c 89 ef             	mov    %r13,%rdi
    d274:	e8 f7 e9 ff ff       	callq  bc70 <_ZNSt18condition_variable4waitERSt11unique_lockISt5mutexE@plt>
    d279:	8b 83 34 01 00 00    	mov    0x134(%rbx),%eax
    d27f:	39 e8                	cmp    %ebp,%eax
    d281:	7e dd                	jle    d260 <_ZN9benchmark5State16StartKeepRunningEv+0xb0>
    d283:	80 7c 24 08 00       	cmpb   $0x0,0x8(%rsp)
    d288:	74 4d                	je     d2d7 <_ZN9benchmark5State16StartKeepRunningEv+0x127>
    d28a:	48 8b 3c 24          	mov    (%rsp),%rdi
    d28e:	48 85 ff             	test   %rdi,%rdi
    d291:	74 44                	je     d2d7 <_ZN9benchmark5State16StartKeepRunningEv+0x127>
    d293:	4d 85 f6             	test   %r14,%r14
    d296:	74 3f                	je     d2d7 <_ZN9benchmark5State16StartKeepRunningEv+0x127>
    d298:	e8 13 e6 ff ff       	callq  b8b0 <pthread_mutex_unlock@plt>
    d29d:	eb 38                	jmp    d2d7 <_ZN9benchmark5State16StartKeepRunningEv+0x127>
    d29f:	90                   	nop
    d2a0:	89 c5                	mov    %eax,%ebp
    d2a2:	83 c5 01             	add    $0x1,%ebp
    d2a5:	80 7c 24 08 00       	cmpb   $0x0,0x8(%rsp)
    d2aa:	c7 83 38 01 00 00 00 	movl   $0x0,0x138(%rbx)
    d2b1:	00 00 00 
    d2b4:	89 ab 34 01 00 00    	mov    %ebp,0x134(%rbx)
    d2ba:	74 13                	je     d2cf <_ZN9benchmark5State16StartKeepRunningEv+0x11f>
    d2bc:	48 8b 3c 24          	mov    (%rsp),%rdi
    d2c0:	48 85 ff             	test   %rdi,%rdi
    d2c3:	74 0a                	je     d2cf <_ZN9benchmark5State16StartKeepRunningEv+0x11f>
    d2c5:	4d 85 f6             	test   %r14,%r14
    d2c8:	74 05                	je     d2cf <_ZN9benchmark5State16StartKeepRunningEv+0x11f>
    d2ca:	e8 e1 e5 ff ff       	callq  b8b0 <pthread_mutex_unlock@plt>
    d2cf:	4c 89 ef             	mov    %r13,%rdi
    d2d2:	e8 e9 e9 ff ff       	callq  bcc0 <_ZNSt18condition_variable10notify_allEv@plt>
    d2d7:	41 80 7c 24 3c 00    	cmpb   $0x0,0x3c(%r12)
    d2dd:	0f 84 8d 00 00 00    	je     d370 <_ZN9benchmark5State16StartKeepRunningEv+0x1c0>
    d2e3:	48 8b 44 24 18       	mov    0x18(%rsp),%rax
    d2e8:	64 48 33 04 25 28 00 	xor    %fs:0x28,%rax
    d2ef:	00 00 
    d2f1:	0f 85 e9 00 00 00    	jne    d3e0 <_ZN9benchmark5State16StartKeepRunningEv+0x230>
    d2f7:	48 83 c4 28          	add    $0x28,%rsp
    d2fb:	5b                   	pop    %rbx
    d2fc:	5d                   	pop    %rbp
    d2fd:	41 5c                	pop    %r12
    d2ff:	41 5d                	pop    %r13
    d301:	41 5e                	pop    %r14
    d303:	41 5f                	pop    %r15
    d305:	c3                   	retq   
    d306:	66 2e 0f 1f 84 00 00 	nopw   %cs:0x0(%rax,%rax,1)
    d30d:	00 00 00 
    d310:	48 8d 3d 71 2a 24 00 	lea    0x242a71(%rip),%rdi        # 24fd88 <_ZGVZN9benchmark8internal18GetNullLogInstanceEvE3log>
    d317:	e8 24 ea ff ff       	callq  bd40 <__cxa_guard_acquire@plt>
    d31c:	85 c0                	test   %eax,%eax
    d31e:	0f 84 bc fe ff ff    	je     d1e0 <_ZN9benchmark5State16StartKeepRunningEv+0x30>
    d324:	48 8d 3d 5d 2a 24 00 	lea    0x242a5d(%rip),%rdi        # 24fd88 <_ZGVZN9benchmark8internal18GetNullLogInstanceEvE3log>
    d32b:	48 c7 05 5a 2a 24 00 	movq   $0x0,0x242a5a(%rip)        # 24fd90 <_ZZN9benchmark8internal18GetNullLogInstanceEvE3log>
    d332:	00 00 00 00 
    d336:	e8 f5 e4 ff ff       	callq  b830 <__cxa_guard_release@plt>
    d33b:	e9 a0 fe ff ff       	jmpq   d1e0 <_ZN9benchmark5State16StartKeepRunningEv+0x30>
    d340:	48 8d 3d 41 2a 24 00 	lea    0x242a41(%rip),%rdi        # 24fd88 <_ZGVZN9benchmark8internal18GetNullLogInstanceEvE3log>
    d347:	e8 f4 e9 ff ff       	callq  bd40 <__cxa_guard_acquire@plt>
    d34c:	85 c0                	test   %eax,%eax
    d34e:	0f 84 df fe ff ff    	je     d233 <_ZN9benchmark5State16StartKeepRunningEv+0x83>
    d354:	48 8d 3d 2d 2a 24 00 	lea    0x242a2d(%rip),%rdi        # 24fd88 <_ZGVZN9benchmark8internal18GetNullLogInstanceEvE3log>
    d35b:	48 c7 05 2a 2a 24 00 	movq   $0x0,0x242a2a(%rip)        # 24fd90 <_ZZN9benchmark8internal18GetNullLogInstanceEvE3log>
    d362:	00 00 00 00 
    d366:	e8 c5 e4 ff ff       	callq  b830 <__cxa_guard_release@plt>
    d36b:	e9 c3 fe ff ff       	jmpq   d233 <_ZN9benchmark5State16StartKeepRunningEv+0x83>
    d370:	0f b6 05 11 2a 24 00 	movzbl 0x242a11(%rip),%eax        # 24fd88 <_ZGVZN9benchmark8internal18GetNullLogInstanceEvE3log>
    d377:	84 c0                	test   %al,%al
    d379:	74 35                	je     d3b0 <_ZN9benchmark5State16StartKeepRunningEv+0x200>
    d37b:	49 8b 9c 24 80 00 00 	mov    0x80(%r12),%rbx
    d382:	00 
    d383:	c6 03 01             	movb   $0x1,(%rbx)
    d386:	e8 a5 e7 ff ff       	callq  bb30 <_ZNSt6chrono3_V212steady_clock3nowEv@plt>
    d38b:	66 0f ef c0          	pxor   %xmm0,%xmm0
    d38f:	f2 48 0f 2a c0       	cvtsi2sd %rax,%xmm0
    d394:	f2 0f 5e 05 ac 6f 03 	divsd  0x36fac(%rip),%xmm0        # 44348 <_ZTSNSt6thread11_State_implINS_8_InvokerISt5tupleIJPFvPKN9benchmark8internal9Benchmark8InstanceEmiPNS4_13ThreadManagerEES8_miSA_EEEEEE+0x88>
    d39b:	00 
    d39c:	f2 0f 11 43 08       	movsd  %xmm0,0x8(%rbx)
    d3a1:	e8 ba 63 03 00       	callq  43760 <_ZN9benchmark14ThreadCPUUsageEv>
    d3a6:	f2 0f 11 43 10       	movsd  %xmm0,0x10(%rbx)
    d3ab:	e9 33 ff ff ff       	jmpq   d2e3 <_ZN9benchmark5State16StartKeepRunningEv+0x133>
    d3b0:	48 8d 3d d1 29 24 00 	lea    0x2429d1(%rip),%rdi        # 24fd88 <_ZGVZN9benchmark8internal18GetNullLogInstanceEvE3log>
    d3b7:	e8 84 e9 ff ff       	callq  bd40 <__cxa_guard_acquire@plt>
    d3bc:	85 c0                	test   %eax,%eax
    d3be:	74 bb                	je     d37b <_ZN9benchmark5State16StartKeepRunningEv+0x1cb>
    d3c0:	48 8d 3d c1 29 24 00 	lea    0x2429c1(%rip),%rdi        # 24fd88 <_ZGVZN9benchmark8internal18GetNullLogInstanceEvE3log>
    d3c7:	48 c7 05 be 29 24 00 	movq   $0x0,0x2429be(%rip)        # 24fd90 <_ZZN9benchmark8internal18GetNullLogInstanceEvE3log>
    d3ce:	00 00 00 00 
    d3d2:	e8 59 e4 ff ff       	callq  b830 <__cxa_guard_release@plt>
    d3d7:	eb a2                	jmp    d37b <_ZN9benchmark5State16StartKeepRunningEv+0x1cb>
    d3d9:	89 c7                	mov    %eax,%edi
    d3db:	e8 60 e4 ff ff       	callq  b840 <_ZSt20__throw_system_errori@plt>
    d3e0:	e8 5b e6 ff ff       	callq  ba40 <__stack_chk_fail@plt>
    d3e5:	bf 01 00 00 00       	mov    $0x1,%edi
    d3ea:	e8 51 e4 ff ff       	callq  b840 <_ZSt20__throw_system_errori@plt>
    d3ef:	90                   	nop

000000000000d3f0 <_ZN9benchmark5State17FinishKeepRunningEv>:
    d3f0:	41 56                	push   %r14
    d3f2:	41 55                	push   %r13
    d3f4:	41 54                	push   %r12
    d3f6:	55                   	push   %rbp
    d3f7:	53                   	push   %rbx
    d3f8:	48 89 fb             	mov    %rdi,%rbx
    d3fb:	48 83 ec 20          	sub    $0x20,%rsp
    d3ff:	64 48 8b 04 25 28 00 	mov    %fs:0x28,%rax
    d406:	00 00 
    d408:	48 89 44 24 18       	mov    %rax,0x18(%rsp)
    d40d:	31 c0                	xor    %eax,%eax
    d40f:	0f b6 05 72 29 24 00 	movzbl 0x242972(%rip),%eax        # 24fd88 <_ZGVZN9benchmark8internal18GetNullLogInstanceEvE3log>
    d416:	84 c0                	test   %al,%al
    d418:	0f 84 aa 01 00 00    	je     d5c8 <_ZN9benchmark5State17FinishKeepRunningEv+0x1d8>
    d41e:	80 7b 3c 00          	cmpb   $0x0,0x3c(%rbx)
    d422:	0f 84 28 01 00 00    	je     d550 <_ZN9benchmark5State17FinishKeepRunningEv+0x160>
    d428:	48 c7 43 08 01 00 00 	movq   $0x1,0x8(%rbx)
    d42f:	00 
    d430:	c6 43 01 01          	movb   $0x1,0x1(%rbx)
    d434:	48 8b 9b 88 00 00 00 	mov    0x88(%rbx),%rbx
    d43b:	c6 44 24 08 00       	movb   $0x0,0x8(%rsp)
    d440:	48 8d bb d8 00 00 00 	lea    0xd8(%rbx),%rdi
    d447:	48 85 ff             	test   %rdi,%rdi
    d44a:	48 89 3c 24          	mov    %rdi,(%rsp)
    d44e:	0f 84 43 02 00 00    	je     d697 <_ZN9benchmark5State17FinishKeepRunningEv+0x2a7>
    d454:	4c 8b 25 6d 1b 24 00 	mov    0x241b6d(%rip),%r12        # 24efc8 <__pthread_key_create@GLIBC_2.2.5>
    d45b:	4d 85 e4             	test   %r12,%r12
    d45e:	74 0d                	je     d46d <_ZN9benchmark5State17FinishKeepRunningEv+0x7d>
    d460:	e8 8b e7 ff ff       	callq  bbf0 <pthread_mutex_lock@plt>
    d465:	85 c0                	test   %eax,%eax
    d467:	0f 85 23 02 00 00    	jne    d690 <_ZN9benchmark5State17FinishKeepRunningEv+0x2a0>
    d46d:	c6 44 24 08 01       	movb   $0x1,0x8(%rsp)
    d472:	0f b6 05 0f 29 24 00 	movzbl 0x24290f(%rip),%eax        # 24fd88 <_ZGVZN9benchmark8internal18GetNullLogInstanceEvE3log>
    d479:	84 c0                	test   %al,%al
    d47b:	0f 84 7f 01 00 00    	je     d600 <_ZN9benchmark5State17FinishKeepRunningEv+0x210>
    d481:	8b 83 38 01 00 00    	mov    0x138(%rbx),%eax
    d487:	8b ab 34 01 00 00    	mov    0x134(%rbx),%ebp
    d48d:	4c 8d ab 00 01 00 00 	lea    0x100(%rbx),%r13
    d494:	83 c0 01             	add    $0x1,%eax
    d497:	3b 83 30 01 00 00    	cmp    0x130(%rbx),%eax
    d49d:	89 83 38 01 00 00    	mov    %eax,0x138(%rbx)
    d4a3:	7d 4d                	jge    d4f2 <_ZN9benchmark5State17FinishKeepRunningEv+0x102>
    d4a5:	49 89 e6             	mov    %rsp,%r14
    d4a8:	eb 14                	jmp    d4be <_ZN9benchmark5State17FinishKeepRunningEv+0xce>
    d4aa:	66 0f 1f 44 00 00    	nopw   0x0(%rax,%rax,1)
    d4b0:	8b 93 30 01 00 00    	mov    0x130(%rbx),%edx
    d4b6:	39 93 38 01 00 00    	cmp    %edx,0x138(%rbx)
    d4bc:	74 32                	je     d4f0 <_ZN9benchmark5State17FinishKeepRunningEv+0x100>
    d4be:	4c 89 f6             	mov    %r14,%rsi
    d4c1:	4c 89 ef             	mov    %r13,%rdi
    d4c4:	e8 a7 e7 ff ff       	callq  bc70 <_ZNSt18condition_variable4waitERSt11unique_lockISt5mutexE@plt>
    d4c9:	8b 83 34 01 00 00    	mov    0x134(%rbx),%eax
    d4cf:	39 e8                	cmp    %ebp,%eax
    d4d1:	7e dd                	jle    d4b0 <_ZN9benchmark5State17FinishKeepRunningEv+0xc0>
    d4d3:	80 7c 24 08 00       	cmpb   $0x0,0x8(%rsp)
    d4d8:	74 4d                	je     d527 <_ZN9benchmark5State17FinishKeepRunningEv+0x137>
    d4da:	48 8b 3c 24          	mov    (%rsp),%rdi
    d4de:	48 85 ff             	test   %rdi,%rdi
    d4e1:	74 44                	je     d527 <_ZN9benchmark5State17FinishKeepRunningEv+0x137>
    d4e3:	4d 85 e4             	test   %r12,%r12
    d4e6:	74 3f                	je     d527 <_ZN9benchmark5State17FinishKeepRunningEv+0x137>
    d4e8:	e8 c3 e3 ff ff       	callq  b8b0 <pthread_mutex_unlock@plt>
    d4ed:	eb 38                	jmp    d527 <_ZN9benchmark5State17FinishKeepRunningEv+0x137>
    d4ef:	90                   	nop
    d4f0:	89 c5                	mov    %eax,%ebp
    d4f2:	83 c5 01             	add    $0x1,%ebp
    d4f5:	80 7c 24 08 00       	cmpb   $0x0,0x8(%rsp)
    d4fa:	c7 83 38 01 00 00 00 	movl   $0x0,0x138(%rbx)
    d501:	00 00 00 
    d504:	89 ab 34 01 00 00    	mov    %ebp,0x134(%rbx)
    d50a:	74 13                	je     d51f <_ZN9benchmark5State17FinishKeepRunningEv+0x12f>
    d50c:	48 8b 3c 24          	mov    (%rsp),%rdi
    d510:	48 85 ff             	test   %rdi,%rdi
    d513:	74 0a                	je     d51f <_ZN9benchmark5State17FinishKeepRunningEv+0x12f>
    d515:	4d 85 e4             	test   %r12,%r12
    d518:	74 05                	je     d51f <_ZN9benchmark5State17FinishKeepRunningEv+0x12f>
    d51a:	e8 91 e3 ff ff       	callq  b8b0 <pthread_mutex_unlock@plt>
    d51f:	4c 89 ef             	mov    %r13,%rdi
    d522:	e8 99 e7 ff ff       	callq  bcc0 <_ZNSt18condition_variable10notify_allEv@plt>
    d527:	48 8b 44 24 18       	mov    0x18(%rsp),%rax
    d52c:	64 48 33 04 25 28 00 	xor    %fs:0x28,%rax
    d533:	00 00 
    d535:	0f 85 66 01 00 00    	jne    d6a1 <_ZN9benchmark5State17FinishKeepRunningEv+0x2b1>
    d53b:	48 83 c4 20          	add    $0x20,%rsp
    d53f:	5b                   	pop    %rbx
    d540:	5d                   	pop    %rbp
    d541:	41 5c                	pop    %r12
    d543:	41 5d                	pop    %r13
    d545:	41 5e                	pop    %r14
    d547:	c3                   	retq   
    d548:	0f 1f 84 00 00 00 00 	nopl   0x0(%rax,%rax,1)
    d54f:	00 
    d550:	0f b6 05 31 28 24 00 	movzbl 0x242831(%rip),%eax        # 24fd88 <_ZGVZN9benchmark8internal18GetNullLogInstanceEvE3log>
    d557:	84 c0                	test   %al,%al
    d559:	0f 84 01 01 00 00    	je     d660 <_ZN9benchmark5State17FinishKeepRunningEv+0x270>
    d55f:	48 8b ab 80 00 00 00 	mov    0x80(%rbx),%rbp
    d566:	0f b6 05 1b 28 24 00 	movzbl 0x24281b(%rip),%eax        # 24fd88 <_ZGVZN9benchmark8internal18GetNullLogInstanceEvE3log>
    d56d:	84 c0                	test   %al,%al
    d56f:	0f 84 bb 00 00 00    	je     d630 <_ZN9benchmark5State17FinishKeepRunningEv+0x240>
    d575:	c6 45 00 00          	movb   $0x0,0x0(%rbp)
    d579:	e8 b2 e5 ff ff       	callq  bb30 <_ZNSt6chrono3_V212steady_clock3nowEv@plt>
    d57e:	66 0f ef c0          	pxor   %xmm0,%xmm0
    d582:	f2 48 0f 2a c0       	cvtsi2sd %rax,%xmm0
    d587:	f2 0f 5e 05 b9 6d 03 	divsd  0x36db9(%rip),%xmm0        # 44348 <_ZTSNSt6thread11_State_implINS_8_InvokerISt5tupleIJPFvPKN9benchmark8internal9Benchmark8InstanceEmiPNS4_13ThreadManagerEES8_miSA_EEEEEE+0x88>
    d58e:	00 
    d58f:	f2 0f 5c 45 08       	subsd  0x8(%rbp),%xmm0
    d594:	f2 0f 58 45 18       	addsd  0x18(%rbp),%xmm0
    d599:	f2 0f 11 45 18       	movsd  %xmm0,0x18(%rbp)
    d59e:	e8 bd 61 03 00       	callq  43760 <_ZN9benchmark14ThreadCPUUsageEv>
    d5a3:	f2 0f 5c 45 10       	subsd  0x10(%rbp),%xmm0
    d5a8:	66 0f ef c9          	pxor   %xmm1,%xmm1
    d5ac:	f2 0f 5f c8          	maxsd  %xmm0,%xmm1
    d5b0:	f2 0f 10 45 20       	movsd  0x20(%rbp),%xmm0
    d5b5:	f2 0f 58 c1          	addsd  %xmm1,%xmm0
    d5b9:	f2 0f 11 45 20       	movsd  %xmm0,0x20(%rbp)
    d5be:	e9 65 fe ff ff       	jmpq   d428 <_ZN9benchmark5State17FinishKeepRunningEv+0x38>
    d5c3:	0f 1f 44 00 00       	nopl   0x0(%rax,%rax,1)
    d5c8:	48 8d 3d b9 27 24 00 	lea    0x2427b9(%rip),%rdi        # 24fd88 <_ZGVZN9benchmark8internal18GetNullLogInstanceEvE3log>
    d5cf:	e8 6c e7 ff ff       	callq  bd40 <__cxa_guard_acquire@plt>
    d5d4:	85 c0                	test   %eax,%eax
    d5d6:	0f 84 42 fe ff ff    	je     d41e <_ZN9benchmark5State17FinishKeepRunningEv+0x2e>
    d5dc:	48 8d 3d a5 27 24 00 	lea    0x2427a5(%rip),%rdi        # 24fd88 <_ZGVZN9benchmark8internal18GetNullLogInstanceEvE3log>
    d5e3:	48 c7 05 a2 27 24 00 	movq   $0x0,0x2427a2(%rip)        # 24fd90 <_ZZN9benchmark8internal18GetNullLogInstanceEvE3log>
    d5ea:	00 00 00 00 
    d5ee:	e8 3d e2 ff ff       	callq  b830 <__cxa_guard_release@plt>
    d5f3:	e9 26 fe ff ff       	jmpq   d41e <_ZN9benchmark5State17FinishKeepRunningEv+0x2e>
    d5f8:	0f 1f 84 00 00 00 00 	nopl   0x0(%rax,%rax,1)
    d5ff:	00 
    d600:	48 8d 3d 81 27 24 00 	lea    0x242781(%rip),%rdi        # 24fd88 <_ZGVZN9benchmark8internal18GetNullLogInstanceEvE3log>
    d607:	e8 34 e7 ff ff       	callq  bd40 <__cxa_guard_acquire@plt>
    d60c:	85 c0                	test   %eax,%eax
    d60e:	0f 84 6d fe ff ff    	je     d481 <_ZN9benchmark5State17FinishKeepRunningEv+0x91>
    d614:	48 8d 3d 6d 27 24 00 	lea    0x24276d(%rip),%rdi        # 24fd88 <_ZGVZN9benchmark8internal18GetNullLogInstanceEvE3log>
    d61b:	48 c7 05 6a 27 24 00 	movq   $0x0,0x24276a(%rip)        # 24fd90 <_ZZN9benchmark8internal18GetNullLogInstanceEvE3log>
    d622:	00 00 00 00 
    d626:	e8 05 e2 ff ff       	callq  b830 <__cxa_guard_release@plt>
    d62b:	e9 51 fe ff ff       	jmpq   d481 <_ZN9benchmark5State17FinishKeepRunningEv+0x91>
    d630:	48 8d 3d 51 27 24 00 	lea    0x242751(%rip),%rdi        # 24fd88 <_ZGVZN9benchmark8internal18GetNullLogInstanceEvE3log>
    d637:	e8 04 e7 ff ff       	callq  bd40 <__cxa_guard_acquire@plt>
    d63c:	85 c0                	test   %eax,%eax
    d63e:	0f 84 31 ff ff ff    	je     d575 <_ZN9benchmark5State17FinishKeepRunningEv+0x185>
    d644:	48 8d 3d 3d 27 24 00 	lea    0x24273d(%rip),%rdi        # 24fd88 <_ZGVZN9benchmark8internal18GetNullLogInstanceEvE3log>
    d64b:	48 c7 05 3a 27 24 00 	movq   $0x0,0x24273a(%rip)        # 24fd90 <_ZZN9benchmark8internal18GetNullLogInstanceEvE3log>
    d652:	00 00 00 00 
    d656:	e8 d5 e1 ff ff       	callq  b830 <__cxa_guard_release@plt>
    d65b:	e9 15 ff ff ff       	jmpq   d575 <_ZN9benchmark5State17FinishKeepRunningEv+0x185>
    d660:	48 8d 3d 21 27 24 00 	lea    0x242721(%rip),%rdi        # 24fd88 <_ZGVZN9benchmark8internal18GetNullLogInstanceEvE3log>
    d667:	e8 d4 e6 ff ff       	callq  bd40 <__cxa_guard_acquire@plt>
    d66c:	85 c0                	test   %eax,%eax
    d66e:	0f 84 eb fe ff ff    	je     d55f <_ZN9benchmark5State17FinishKeepRunningEv+0x16f>
    d674:	48 8d 3d 0d 27 24 00 	lea    0x24270d(%rip),%rdi        # 24fd88 <_ZGVZN9benchmark8internal18GetNullLogInstanceEvE3log>
    d67b:	48 c7 05 0a 27 24 00 	movq   $0x0,0x24270a(%rip)        # 24fd90 <_ZZN9benchmark8internal18GetNullLogInstanceEvE3log>
    d682:	00 00 00 00 
    d686:	e8 a5 e1 ff ff       	callq  b830 <__cxa_guard_release@plt>
    d68b:	e9 cf fe ff ff       	jmpq   d55f <_ZN9benchmark5State17FinishKeepRunningEv+0x16f>
    d690:	89 c7                	mov    %eax,%edi
    d692:	e8 a9 e1 ff ff       	callq  b840 <_ZSt20__throw_system_errori@plt>
    d697:	bf 01 00 00 00       	mov    $0x1,%edi
    d69c:	e8 9f e1 ff ff       	callq  b840 <_ZSt20__throw_system_errori@plt>
    d6a1:	e8 9a e3 ff ff       	callq  ba40 <__stack_chk_fail@plt>
    d6a6:	66 2e 0f 1f 84 00 00 	nopw   %cs:0x0(%rax,%rax,1)
    d6ad:	00 00 00 

000000000000d6b0 <_ZN9benchmark8internal6IsZeroEd>:
    d6b0:	66 0f 54 05 e8 6c 03 	andpd  0x36ce8(%rip),%xmm0        # 443a0 <_ZTSNSt6thread11_State_implINS_8_InvokerISt5tupleIJPFvPKN9benchmark8internal9Benchmark8InstanceEmiPNS4_13ThreadManagerEES8_miSA_EEEEEE+0xe0>
    d6b7:	00 
    d6b8:	f2 0f 10 0d 90 6c 03 	movsd  0x36c90(%rip),%xmm1        # 44350 <_ZTSNSt6thread11_State_implINS_8_InvokerISt5tupleIJPFvPKN9benchmark8internal9Benchmark8InstanceEmiPNS4_13ThreadManagerEES8_miSA_EEEEEE+0x90>
    d6bf:	00 
    d6c0:	66 0f 2e c8          	ucomisd %xmm0,%xmm1
    d6c4:	0f 97 c0             	seta   %al
    d6c7:	c3                   	retq   
    d6c8:	0f 1f 84 00 00 00 00 	nopl   0x0(%rax,%rax,1)
    d6cf:	00 

000000000000d6d0 <_ZN9benchmark8internal16GetOutputOptionsEb>:
    d6d0:	53                   	push   %rbx
    d6d1:	48 8d 35 e1 66 03 00 	lea    0x366e1(%rip),%rsi        # 43db9 <_ZTSFvPKvRKN8dyntrace6tracer4regsEE+0x49>
    d6d8:	89 fb                	mov    %edi,%ebx
    d6da:	48 8d 3d bf 25 24 00 	lea    0x2425bf(%rip),%rdi        # 24fca0 <_Z21FLAGS_benchmark_colorB5cxx11>
    d6e1:	e8 6a df ff ff       	callq  b650 <_ZNKSt7__cxx1112basic_stringIcSt11char_traitsIcESaIcEE7compareEPKc@plt>
    d6e6:	85 c0                	test   %eax,%eax
    d6e8:	75 26                	jne    d710 <_ZN9benchmark8internal16GetOutputOptionsEb+0x40>
    d6ea:	e8 a1 f6 01 00       	callq  2cd90 <_ZN9benchmark15IsColorTerminalEv>
    d6ef:	84 c0                	test   %al,%al
    d6f1:	74 1d                	je     d710 <_ZN9benchmark8internal16GetOutputOptionsEb+0x40>
    d6f3:	b8 03 00 00 00       	mov    $0x3,%eax
    d6f8:	84 db                	test   %bl,%bl
    d6fa:	ba 02 00 00 00       	mov    $0x2,%edx
    d6ff:	0f 45 c2             	cmovne %edx,%eax
    d702:	80 3d 7b 25 24 00 00 	cmpb   $0x0,0x24257b(%rip)        # 24fc84 <FLAGS_benchmark_counters_tabular>
    d709:	75 03                	jne    d70e <_ZN9benchmark8internal16GetOutputOptionsEb+0x3e>
    d70b:	83 e0 fd             	and    $0xfffffffd,%eax
    d70e:	5b                   	pop    %rbx
    d70f:	c3                   	retq   
    d710:	48 8d 3d 89 25 24 00 	lea    0x242589(%rip),%rdi        # 24fca0 <_Z21FLAGS_benchmark_colorB5cxx11>
    d717:	e8 04 13 02 00       	callq  2ea20 <_ZN9benchmark17IsTruthyFlagValueERKNSt7__cxx1112basic_stringIcSt11char_traitsIcESaIcEEE>
    d71c:	84 c0                	test   %al,%al
    d71e:	75 d3                	jne    d6f3 <_ZN9benchmark8internal16GetOutputOptionsEb+0x23>
    d720:	b8 02 00 00 00       	mov    $0x2,%eax
    d725:	eb d1                	jmp    d6f8 <_ZN9benchmark8internal16GetOutputOptionsEb+0x28>
    d727:	66 0f 1f 84 00 00 00 	nopw   0x0(%rax,%rax,1)
    d72e:	00 00 

000000000000d730 <_ZN9benchmark8internal17PrintUsageAndExitEv>:
    d730:	48 83 ec 08          	sub    $0x8,%rsp
    d734:	48 8b 0d 85 21 24 00 	mov    0x242185(%rip),%rcx        # 24f8c0 <stdout@@GLIBC_2.2.5>
    d73b:	48 8d 3d a6 67 03 00 	lea    0x367a6(%rip),%rdi        # 43ee8 <_ZTSFvPKvRKN8dyntrace6tracer4regsEE+0x178>
    d742:	ba 05 02 00 00       	mov    $0x205,%edx
    d747:	be 01 00 00 00       	mov    $0x1,%esi
    d74c:	e8 7f e6 ff ff       	callq  bdd0 <fwrite@plt>
    d751:	31 ff                	xor    %edi,%edi
    d753:	e8 48 e3 ff ff       	callq  baa0 <exit@plt>
    d758:	0f 1f 84 00 00 00 00 	nopl   0x0(%rax,%rax,1)
    d75f:	00 

000000000000d760 <_ZN9benchmark8internal21ParseCommandLineFlagsEPiPPc>:
    d760:	41 57                	push   %r15
    d762:	41 56                	push   %r14
    d764:	41 55                	push   %r13
    d766:	41 54                	push   %r12
    d768:	55                   	push   %rbp
    d769:	53                   	push   %rbx
    d76a:	48 83 ec 08          	sub    $0x8,%rsp
    d76e:	83 3f 01             	cmpl   $0x1,(%rdi)
    d771:	0f 8e e3 00 00 00    	jle    d85a <_ZN9benchmark8internal21ParseCommandLineFlagsEPiPPc+0xfa>
    d777:	49 89 fd             	mov    %rdi,%r13
    d77a:	49 89 f6             	mov    %rsi,%r14
    d77d:	bb 01 00 00 00       	mov    $0x1,%ebx
    d782:	66 0f 1f 44 00 00    	nopw   0x0(%rax,%rax,1)
    d788:	48 63 eb             	movslq %ebx,%rbp
    d78b:	48 8d 15 ce 25 24 00 	lea    0x2425ce(%rip),%rdx        # 24fd60 <FLAGS_benchmark_list_tests>
    d792:	48 8d 35 25 66 03 00 	lea    0x36625(%rip),%rsi        # 43dbe <_ZTSFvPKvRKN8dyntrace6tracer4regsEE+0x4e>
    d799:	48 c1 e5 03          	shl    $0x3,%rbp
    d79d:	4d 8d 24 2e          	lea    (%r14,%rbp,1),%r12
    d7a1:	49 8b 3c 24          	mov    (%r12),%rdi
    d7a5:	e8 06 03 02 00       	callq  2dab0 <_ZN9benchmark13ParseBoolFlagEPKcS1_Pb>
    d7aa:	84 c0                	test   %al,%al
    d7ac:	75 72                	jne    d820 <_ZN9benchmark8internal21ParseCommandLineFlagsEPiPPc+0xc0>
    d7ae:	49 8b 3c 24          	mov    (%r12),%rdi
    d7b2:	48 8d 15 87 25 24 00 	lea    0x242587(%rip),%rdx        # 24fd40 <_Z22FLAGS_benchmark_filterB5cxx11>
    d7b9:	48 8d 35 13 66 03 00 	lea    0x36613(%rip),%rsi        # 43dd3 <_ZTSFvPKvRKN8dyntrace6tracer4regsEE+0x63>
    d7c0:	e8 fb 0c 02 00       	callq  2e4c0 <_ZN9benchmark15ParseStringFlagEPKcS1_PNSt7__cxx1112basic_stringIcSt11char_traitsIcESaIcEEE>
    d7c5:	84 c0                	test   %al,%al
    d7c7:	75 57                	jne    d820 <_ZN9benchmark8internal21ParseCommandLineFlagsEPiPPc+0xc0>
    d7c9:	49 8b 3c 24          	mov    (%r12),%rdi
    d7cd:	48 8d 15 ac 1c 24 00 	lea    0x241cac(%rip),%rdx        # 24f480 <FLAGS_benchmark_min_time>
    d7d4:	48 8d 35 09 66 03 00 	lea    0x36609(%rip),%rsi        # 43de4 <_ZTSFvPKvRKN8dyntrace6tracer4regsEE+0x74>
    d7db:	e8 80 0a 02 00       	callq  2e260 <_ZN9benchmark15ParseDoubleFlagEPKcS1_Pd>
    d7e0:	84 c0                	test   %al,%al
    d7e2:	75 3c                	jne    d820 <_ZN9benchmark8internal21ParseCommandLineFlagsEPiPPc+0xc0>
    d7e4:	49 8b 3c 24          	mov    (%r12),%rdi
    d7e8:	48 8d 15 89 1c 24 00 	lea    0x241c89(%rip),%rdx        # 24f478 <FLAGS_benchmark_repetitions>
    d7ef:	48 8d 35 01 66 03 00 	lea    0x36601(%rip),%rsi        # 43df7 <_ZTSFvPKvRKN8dyntrace6tracer4regsEE+0x87>
    d7f6:	e8 85 06 02 00       	callq  2de80 <_ZN9benchmark14ParseInt32FlagEPKcS1_Pi>
    d7fb:	84 c0                	test   %al,%al
    d7fd:	75 21                	jne    d820 <_ZN9benchmark8internal21ParseCommandLineFlagsEPiPPc+0xc0>
    d7ff:	49 8b 3c 24          	mov    (%r12),%rdi
    d803:	48 8d 15 16 25 24 00 	lea    0x242516(%rip),%rdx        # 24fd20 <FLAGS_benchmark_report_aggregates_only>
    d80a:	48 8d 35 df 68 03 00 	lea    0x368df(%rip),%rsi        # 440f0 <_ZTSFvPKvRKN8dyntrace6tracer4regsEE+0x380>
    d811:	e8 9a 02 02 00       	callq  2dab0 <_ZN9benchmark13ParseBoolFlagEPKcS1_Pb>
    d816:	84 c0                	test   %al,%al
    d818:	0f 84 ba 00 00 00    	je     d8d8 <_ZN9benchmark8internal21ParseCommandLineFlagsEPiPPc+0x178>
    d81e:	66 90                	xchg   %ax,%ax
    d820:	41 8b 45 00          	mov    0x0(%r13),%eax
    d824:	44 8d 78 ff          	lea    -0x1(%rax),%r15d
    d828:	44 39 fb             	cmp    %r15d,%ebx
    d82b:	74 1a                	je     d847 <_ZN9benchmark8internal21ParseCommandLineFlagsEPiPPc+0xe7>
    d82d:	83 e8 02             	sub    $0x2,%eax
    d830:	49 8d 74 2e 08       	lea    0x8(%r14,%rbp,1),%rsi
    d835:	4c 89 e7             	mov    %r12,%rdi
    d838:	29 d8                	sub    %ebx,%eax
    d83a:	48 8d 14 c5 08 00 00 	lea    0x8(,%rax,8),%rdx
    d841:	00 
    d842:	e8 49 e4 ff ff       	callq  bc90 <memmove@plt>
    d847:	45 89 7d 00          	mov    %r15d,0x0(%r13)
    d84b:	83 eb 01             	sub    $0x1,%ebx
    d84e:	83 c3 01             	add    $0x1,%ebx
    d851:	44 39 fb             	cmp    %r15d,%ebx
    d854:	0f 8c 2e ff ff ff    	jl     d788 <_ZN9benchmark8internal21ParseCommandLineFlagsEPiPPc+0x28>
    d85a:	4c 8d 2d 9f 0a 24 00 	lea    0x240a9f(%rip),%r13        # 24e300 <._114>
    d861:	4c 8d 25 28 65 03 00 	lea    0x36528(%rip),%r12        # 43d90 <_ZTSFvPKvRKN8dyntrace6tracer4regsEE+0x20>
    d868:	31 db                	xor    %ebx,%ebx
    d86a:	49 8b 6c 1d 00       	mov    0x0(%r13,%rbx,1),%rbp
    d86f:	4c 89 e6             	mov    %r12,%rsi
    d872:	48 89 ef             	mov    %rbp,%rdi
    d875:	e8 d6 dd ff ff       	callq  b650 <_ZNKSt7__cxx1112basic_stringIcSt11char_traitsIcESaIcEE7compareEPKc@plt>
    d87a:	85 c0                	test   %eax,%eax
    d87c:	75 2a                	jne    d8a8 <_ZN9benchmark8internal21ParseCommandLineFlagsEPiPPc+0x148>
    d87e:	48 83 c3 08          	add    $0x8,%rbx
    d882:	48 83 fb 10          	cmp    $0x10,%rbx
    d886:	75 e2                	jne    d86a <_ZN9benchmark8internal21ParseCommandLineFlagsEPiPPc+0x10a>
    d888:	48 83 3d 18 24 24 00 	cmpq   $0x0,0x242418(%rip)        # 24fca8 <_Z21FLAGS_benchmark_colorB5cxx11+0x8>
    d88f:	00 
    d890:	74 3c                	je     d8ce <_ZN9benchmark8internal21ParseCommandLineFlagsEPiPPc+0x16e>
    d892:	48 83 c4 08          	add    $0x8,%rsp
    d896:	5b                   	pop    %rbx
    d897:	5d                   	pop    %rbp
    d898:	41 5c                	pop    %r12
    d89a:	41 5d                	pop    %r13
    d89c:	41 5e                	pop    %r14
    d89e:	41 5f                	pop    %r15
    d8a0:	c3                   	retq   
    d8a1:	0f 1f 80 00 00 00 00 	nopl   0x0(%rax)
    d8a8:	48 8d 35 e9 64 03 00 	lea    0x364e9(%rip),%rsi        # 43d98 <_ZTSFvPKvRKN8dyntrace6tracer4regsEE+0x28>
    d8af:	48 89 ef             	mov    %rbp,%rdi
    d8b2:	e8 99 dd ff ff       	callq  b650 <_ZNKSt7__cxx1112basic_stringIcSt11char_traitsIcESaIcEE7compareEPKc@plt>
    d8b7:	85 c0                	test   %eax,%eax
    d8b9:	74 c3                	je     d87e <_ZN9benchmark8internal21ParseCommandLineFlagsEPiPPc+0x11e>
    d8bb:	48 8d 35 db 64 03 00 	lea    0x364db(%rip),%rsi        # 43d9d <_ZTSFvPKvRKN8dyntrace6tracer4regsEE+0x2d>
    d8c2:	48 89 ef             	mov    %rbp,%rdi
    d8c5:	e8 86 dd ff ff       	callq  b650 <_ZNKSt7__cxx1112basic_stringIcSt11char_traitsIcESaIcEE7compareEPKc@plt>
    d8ca:	85 c0                	test   %eax,%eax
    d8cc:	74 b0                	je     d87e <_ZN9benchmark8internal21ParseCommandLineFlagsEPiPPc+0x11e>
    d8ce:	e8 5d fe ff ff       	callq  d730 <_ZN9benchmark8internal17PrintUsageAndExitEv>
    d8d3:	0f 1f 44 00 00       	nopl   0x0(%rax,%rax,1)
    d8d8:	49 8b 3c 24          	mov    (%r12),%rdi
    d8dc:	48 8d 15 1d 24 24 00 	lea    0x24241d(%rip),%rdx        # 24fd00 <_Z22FLAGS_benchmark_formatB5cxx11>
    d8e3:	48 8d 35 23 65 03 00 	lea    0x36523(%rip),%rsi        # 43e0d <_ZTSFvPKvRKN8dyntrace6tracer4regsEE+0x9d>
    d8ea:	e8 d1 0b 02 00       	callq  2e4c0 <_ZN9benchmark15ParseStringFlagEPKcS1_PNSt7__cxx1112basic_stringIcSt11char_traitsIcESaIcEEE>
    d8ef:	84 c0                	test   %al,%al
    d8f1:	0f 85 29 ff ff ff    	jne    d820 <_ZN9benchmark8internal21ParseCommandLineFlagsEPiPPc+0xc0>
    d8f7:	49 8b 3c 24          	mov    (%r12),%rdi
    d8fb:	48 8d 15 be 23 24 00 	lea    0x2423be(%rip),%rdx        # 24fcc0 <_Z19FLAGS_benchmark_outB5cxx11>
    d902:	48 8d 35 15 65 03 00 	lea    0x36515(%rip),%rsi        # 43e1e <_ZTSFvPKvRKN8dyntrace6tracer4regsEE+0xae>
    d909:	e8 b2 0b 02 00       	callq  2e4c0 <_ZN9benchmark15ParseStringFlagEPKcS1_PNSt7__cxx1112basic_stringIcSt11char_traitsIcESaIcEEE>
    d90e:	84 c0                	test   %al,%al
    d910:	0f 85 0a ff ff ff    	jne    d820 <_ZN9benchmark8internal21ParseCommandLineFlagsEPiPPc+0xc0>
    d916:	49 8b 3c 24          	mov    (%r12),%rdi
    d91a:	48 8d 15 bf 23 24 00 	lea    0x2423bf(%rip),%rdx        # 24fce0 <_Z26FLAGS_benchmark_out_formatB5cxx11>
    d921:	48 8d 35 04 65 03 00 	lea    0x36504(%rip),%rsi        # 43e2c <_ZTSFvPKvRKN8dyntrace6tracer4regsEE+0xbc>
    d928:	e8 93 0b 02 00       	callq  2e4c0 <_ZN9benchmark15ParseStringFlagEPKcS1_PNSt7__cxx1112basic_stringIcSt11char_traitsIcESaIcEEE>
    d92d:	84 c0                	test   %al,%al
    d92f:	0f 85 eb fe ff ff    	jne    d820 <_ZN9benchmark8internal21ParseCommandLineFlagsEPiPPc+0xc0>
    d935:	49 8b 3c 24          	mov    (%r12),%rdi
    d939:	48 8d 15 60 23 24 00 	lea    0x242360(%rip),%rdx        # 24fca0 <_Z21FLAGS_benchmark_colorB5cxx11>
    d940:	48 8d 35 fa 64 03 00 	lea    0x364fa(%rip),%rsi        # 43e41 <_ZTSFvPKvRKN8dyntrace6tracer4regsEE+0xd1>
    d947:	e8 74 0b 02 00       	callq  2e4c0 <_ZN9benchmark15ParseStringFlagEPKcS1_PNSt7__cxx1112basic_stringIcSt11char_traitsIcESaIcEEE>
    d94c:	84 c0                	test   %al,%al
    d94e:	0f 85 cc fe ff ff    	jne    d820 <_ZN9benchmark8internal21ParseCommandLineFlagsEPiPPc+0xc0>
    d954:	49 8b 3c 24          	mov    (%r12),%rdi
    d958:	48 8d 15 41 23 24 00 	lea    0x242341(%rip),%rdx        # 24fca0 <_Z21FLAGS_benchmark_colorB5cxx11>
    d95f:	48 8d 35 eb 64 03 00 	lea    0x364eb(%rip),%rsi        # 43e51 <_ZTSFvPKvRKN8dyntrace6tracer4regsEE+0xe1>
    d966:	e8 55 0b 02 00       	callq  2e4c0 <_ZN9benchmark15ParseStringFlagEPKcS1_PNSt7__cxx1112basic_stringIcSt11char_traitsIcESaIcEEE>
    d96b:	84 c0                	test   %al,%al
    d96d:	0f 85 ad fe ff ff    	jne    d820 <_ZN9benchmark8internal21ParseCommandLineFlagsEPiPPc+0xc0>
    d973:	49 8b 3c 24          	mov    (%r12),%rdi
    d977:	48 8d 15 06 23 24 00 	lea    0x242306(%rip),%rdx        # 24fc84 <FLAGS_benchmark_counters_tabular>
    d97e:	48 8d 35 d8 64 03 00 	lea    0x364d8(%rip),%rsi        # 43e5d <_ZTSFvPKvRKN8dyntrace6tracer4regsEE+0xed>
    d985:	e8 26 01 02 00       	callq  2dab0 <_ZN9benchmark13ParseBoolFlagEPKcS1_Pb>
    d98a:	84 c0                	test   %al,%al
    d98c:	0f 85 8e fe ff ff    	jne    d820 <_ZN9benchmark8internal21ParseCommandLineFlagsEPiPPc+0xc0>
    d992:	49 8b 3c 24          	mov    (%r12),%rdi
    d996:	48 8d 15 e3 22 24 00 	lea    0x2422e3(%rip),%rdx        # 24fc80 <FLAGS_v>
    d99d:	48 8d 35 8b 6b 03 00 	lea    0x36b8b(%rip),%rsi        # 4452f <_ZTSNSt6thread11_State_implINS_8_InvokerISt5tupleIJPFvPKN9benchmark8internal9Benchmark8InstanceEmiPNS4_13ThreadManagerEES8_miSA_EEEEEE+0x26f>
    d9a4:	e8 d7 04 02 00       	callq  2de80 <_ZN9benchmark14ParseInt32FlagEPKcS1_Pi>
    d9a9:	84 c0                	test   %al,%al
    d9ab:	0f 85 6f fe ff ff    	jne    d820 <_ZN9benchmark8internal21ParseCommandLineFlagsEPiPPc+0xc0>
    d9b1:	49 8b 3c 24          	mov    (%r12),%rdi
    d9b5:	48 8d 35 bc 64 03 00 	lea    0x364bc(%rip),%rsi        # 43e78 <_ZTSFvPKvRKN8dyntrace6tracer4regsEE+0x108>
    d9bc:	e8 bf 0d 02 00       	callq  2e780 <_ZN9benchmark6IsFlagEPKcS1_>
    d9c1:	84 c0                	test   %al,%al
    d9c3:	0f 85 05 ff ff ff    	jne    d8ce <_ZN9benchmark8internal21ParseCommandLineFlagsEPiPPc+0x16e>
    d9c9:	45 8b 7d 00          	mov    0x0(%r13),%r15d
    d9cd:	e9 7c fe ff ff       	jmpq   d84e <_ZN9benchmark8internal21ParseCommandLineFlagsEPiPPc+0xee>
    d9d2:	0f 1f 40 00          	nopl   0x0(%rax)
    d9d6:	66 2e 0f 1f 84 00 00 	nopw   %cs:0x0(%rax,%rax,1)
    d9dd:	00 00 00 

000000000000d9e0 <_ZN9benchmark8internal17InitializeStreamsEv>:
    d9e0:	0f b6 05 81 23 24 00 	movzbl 0x242381(%rip),%eax        # 24fd68 <_ZGVZN9benchmark8internal17InitializeStreamsEvE4init>
    d9e7:	84 c0                	test   %al,%al
    d9e9:	74 05                	je     d9f0 <_ZN9benchmark8internal17InitializeStreamsEv+0x10>
    d9eb:	31 c0                	xor    %eax,%eax
    d9ed:	c3                   	retq   
    d9ee:	66 90                	xchg   %ax,%ax
    d9f0:	53                   	push   %rbx
    d9f1:	48 8d 3d 70 23 24 00 	lea    0x242370(%rip),%rdi        # 24fd68 <_ZGVZN9benchmark8internal17InitializeStreamsEvE4init>
    d9f8:	e8 43 e3 ff ff       	callq  bd40 <__cxa_guard_acquire@plt>
    d9fd:	85 c0                	test   %eax,%eax
    d9ff:	75 07                	jne    da08 <_ZN9benchmark8internal17InitializeStreamsEv+0x28>
    da01:	31 c0                	xor    %eax,%eax
    da03:	5b                   	pop    %rbx
    da04:	c3                   	retq   
    da05:	0f 1f 00             	nopl   (%rax)
    da08:	48 8d 3d 61 23 24 00 	lea    0x242361(%rip),%rdi        # 24fd70 <_ZZN9benchmark8internal17InitializeStreamsEvE4init>
    da0f:	e8 2c e2 ff ff       	callq  bc40 <_ZNSt8ios_base4InitC1Ev@plt>
    da14:	48 8d 3d 4d 23 24 00 	lea    0x24234d(%rip),%rdi        # 24fd68 <_ZGVZN9benchmark8internal17InitializeStreamsEvE4init>
    da1b:	e8 10 de ff ff       	callq  b830 <__cxa_guard_release@plt>
    da20:	48 8b 3d c9 15 24 00 	mov    0x2415c9(%rip),%rdi        # 24eff0 <_ZNSt8ios_base4InitD1Ev@GLIBCXX_3.4>
    da27:	48 8d 15 3a 1a 24 00 	lea    0x241a3a(%rip),%rdx        # 24f468 <__dso_handle>
    da2e:	48 8d 35 3b 23 24 00 	lea    0x24233b(%rip),%rsi        # 24fd70 <_ZZN9benchmark8internal17InitializeStreamsEvE4init>
    da35:	e8 f6 de ff ff       	callq  b930 <__cxa_atexit@plt>
    da3a:	31 c0                	xor    %eax,%eax
    da3c:	5b                   	pop    %rbx
    da3d:	c3                   	retq   
    da3e:	48 8d 3d 23 23 24 00 	lea    0x242323(%rip),%rdi        # 24fd68 <_ZGVZN9benchmark8internal17InitializeStreamsEvE4init>
    da45:	48 89 c3             	mov    %rax,%rbx
    da48:	e8 d3 dd ff ff       	callq  b820 <__cxa_guard_abort@plt>
    da4d:	48 89 df             	mov    %rbx,%rdi
    da50:	e8 cb e2 ff ff       	callq  bd20 <_Unwind_Resume@plt>
    da55:	90                   	nop
    da56:	66 2e 0f 1f 84 00 00 	nopw   %cs:0x0(%rax,%rax,1)
    da5d:	00 00 00 

000000000000da60 <_ZN9benchmark10InitializeEPiPPc>:
    da60:	48 83 ec 08          	sub    $0x8,%rsp
    da64:	e8 f7 fc ff ff       	callq  d760 <_ZN9benchmark8internal21ParseCommandLineFlagsEPiPPc>
    da69:	8b 05 11 22 24 00    	mov    0x242211(%rip),%eax        # 24fc80 <FLAGS_v>
    da6f:	89 05 23 23 24 00    	mov    %eax,0x242323(%rip)        # 24fd98 <_ZZN9benchmark8internal8LogLevelEvE9log_level>
    da75:	48 83 c4 08          	add    $0x8,%rsp
    da79:	c3                   	retq   
    da7a:	66 0f 1f 44 00 00    	nopw   0x0(%rax,%rax,1)

000000000000da80 <_ZN9benchmark27ReportUnrecognizedArgumentsEiPPc>:
    da80:	83 ff 01             	cmp    $0x1,%edi
    da83:	41 56                	push   %r14
    da85:	41 89 fe             	mov    %edi,%r14d
    da88:	41 55                	push   %r13
    da8a:	41 54                	push   %r12
    da8c:	55                   	push   %rbp
    da8d:	53                   	push   %rbx
    da8e:	7e 41                	jle    dad1 <_ZN9benchmark27ReportUnrecognizedArgumentsEiPPc+0x51>
    da90:	8d 47 fe             	lea    -0x2(%rdi),%eax
    da93:	48 8d 5e 08          	lea    0x8(%rsi),%rbx
    da97:	4c 8d 25 7a 66 03 00 	lea    0x3667a(%rip),%r12        # 44118 <_ZTSFvPKvRKN8dyntrace6tracer4regsEE+0x3a8>
    da9e:	48 89 f5             	mov    %rsi,%rbp
    daa1:	4c 8d 6c c6 10       	lea    0x10(%rsi,%rax,8),%r13
    daa6:	66 2e 0f 1f 84 00 00 	nopw   %cs:0x0(%rax,%rax,1)
    daad:	00 00 00 
    dab0:	48 8b 0b             	mov    (%rbx),%rcx
    dab3:	48 8b 55 00          	mov    0x0(%rbp),%rdx
    dab7:	31 c0                	xor    %eax,%eax
    dab9:	48 8b 3d 60 20 24 00 	mov    0x242060(%rip),%rdi        # 24fb20 <stderr@@GLIBC_2.2.5>
    dac0:	4c 89 e6             	mov    %r12,%rsi
    dac3:	48 83 c3 08          	add    $0x8,%rbx
    dac7:	e8 d4 e0 ff ff       	callq  bba0 <fprintf@plt>
    dacc:	4c 39 eb             	cmp    %r13,%rbx
    dacf:	75 df                	jne    dab0 <_ZN9benchmark27ReportUnrecognizedArgumentsEiPPc+0x30>
    dad1:	41 83 fe 01          	cmp    $0x1,%r14d
    dad5:	5b                   	pop    %rbx
    dad6:	0f 9f c0             	setg   %al
    dad9:	5d                   	pop    %rbp
    dada:	41 5c                	pop    %r12
    dadc:	41 5d                	pop    %r13
    dade:	41 5e                	pop    %r14
    dae0:	c3                   	retq   
    dae1:	90                   	nop
    dae2:	0f 1f 40 00          	nopl   0x0(%rax)
    dae6:	66 2e 0f 1f 84 00 00 	nopw   %cs:0x0(%rax,%rax,1)
    daed:	00 00 00 

000000000000daf0 <_ZN9benchmark5StateC1EmRKSt6vectorIiSaIiEEiiPNS_8internal11ThreadTimerEPNS6_13ThreadManagerE>:
    daf0:	41 57                	push   %r15
    daf2:	41 56                	push   %r14
    daf4:	48 8d 46 01          	lea    0x1(%rsi),%rax
    daf8:	41 55                	push   %r13
    dafa:	41 54                	push   %r12
    dafc:	41 89 cd             	mov    %ecx,%r13d
    daff:	55                   	push   %rbp
    db00:	53                   	push   %rbx
    db01:	31 c9                	xor    %ecx,%ecx
    db03:	48 89 fb             	mov    %rdi,%rbx
    db06:	49 89 f7             	mov    %rsi,%r15
    db09:	45 89 c6             	mov    %r8d,%r14d
    db0c:	48 83 ec 18          	sub    $0x18,%rsp
    db10:	48 8b 6a 08          	mov    0x8(%rdx),%rbp
    db14:	48 2b 2a             	sub    (%rdx),%rbp
    db17:	48 89 47 08          	mov    %rax,0x8(%rdi)
    db1b:	4d 89 cc             	mov    %r9,%r12
    db1e:	c6 07 00             	movb   $0x0,(%rdi)
    db21:	c6 47 01 00          	movb   $0x0,0x1(%rdi)
    db25:	48 c7 47 10 00 00 00 	movq   $0x0,0x10(%rdi)
    db2c:	00 
    db2d:	48 c7 47 18 00 00 00 	movq   $0x0,0x18(%rdi)
    db34:	00 
    db35:	48 c7 47 20 00 00 00 	movq   $0x0,0x20(%rdi)
    db3c:	00 
    db3d:	48 89 e8             	mov    %rbp,%rax
    db40:	48 c1 f8 02          	sar    $0x2,%rax
    db44:	48 85 c0             	test   %rax,%rax
    db47:	74 28                	je     db71 <_ZN9benchmark5StateC1EmRKSt6vectorIiSaIiEEiiPNS_8internal11ThreadTimerEPNS6_13ThreadManagerE+0x81>
    db49:	48 b9 ff ff ff ff ff 	movabs $0x3fffffffffffffff,%rcx
    db50:	ff ff 3f 
    db53:	48 39 c8             	cmp    %rcx,%rax
    db56:	0f 87 d4 01 00 00    	ja     dd30 <_ZN9benchmark5StateC1EmRKSt6vectorIiSaIiEEiiPNS_8internal11ThreadTimerEPNS6_13ThreadManagerE+0x240>
    db5c:	48 89 ef             	mov    %rbp,%rdi
    db5f:	48 89 54 24 08       	mov    %rdx,0x8(%rsp)
    db64:	e8 67 de ff ff       	callq  b9d0 <_Znwm@plt>
    db69:	48 8b 54 24 08       	mov    0x8(%rsp),%rdx
    db6e:	48 89 c1             	mov    %rax,%rcx
    db71:	48 01 cd             	add    %rcx,%rbp
    db74:	48 89 4b 10          	mov    %rcx,0x10(%rbx)
    db78:	48 89 4b 18          	mov    %rcx,0x18(%rbx)
    db7c:	48 89 6b 20          	mov    %rbp,0x20(%rbx)
    db80:	48 8b 42 08          	mov    0x8(%rdx),%rax
    db84:	48 8b 32             	mov    (%rdx),%rsi
    db87:	48 89 c5             	mov    %rax,%rbp
    db8a:	48 29 f5             	sub    %rsi,%rbp
    db8d:	48 39 f0             	cmp    %rsi,%rax
    db90:	74 0e                	je     dba0 <_ZN9benchmark5StateC1EmRKSt6vectorIiSaIiEEiiPNS_8internal11ThreadTimerEPNS6_13ThreadManagerE+0xb0>
    db92:	48 89 cf             	mov    %rcx,%rdi
    db95:	48 89 ea             	mov    %rbp,%rdx
    db98:	e8 f3 e0 ff ff       	callq  bc90 <memmove@plt>
    db9d:	48 89 c1             	mov    %rax,%rcx
    dba0:	48 8d 43 48          	lea    0x48(%rbx),%rax
    dba4:	48 01 e9             	add    %rbp,%rcx
    dba7:	48 c7 43 28 00 00 00 	movq   $0x0,0x28(%rbx)
    dbae:	00 
    dbaf:	48 89 4b 18          	mov    %rcx,0x18(%rbx)
    dbb3:	48 c7 43 30 00 00 00 	movq   $0x0,0x30(%rbx)
    dbba:	00 
    dbbb:	48 89 43 58          	mov    %rax,0x58(%rbx)
    dbbf:	48 89 43 60          	mov    %rax,0x60(%rbx)
    dbc3:	48 8b 44 24 50       	mov    0x50(%rsp),%rax
    dbc8:	c7 43 38 00 00 00 00 	movl   $0x0,0x38(%rbx)
    dbcf:	c6 43 3c 00          	movb   $0x0,0x3c(%rbx)
    dbd3:	c7 43 48 00 00 00 00 	movl   $0x0,0x48(%rbx)
    dbda:	48 c7 43 50 00 00 00 	movq   $0x0,0x50(%rbx)
    dbe1:	00 
    dbe2:	48 c7 43 68 00 00 00 	movq   $0x0,0x68(%rbx)
    dbe9:	00 
    dbea:	44 89 6b 70          	mov    %r13d,0x70(%rbx)
    dbee:	44 89 73 74          	mov    %r14d,0x74(%rbx)
    dbf2:	4c 89 7b 78          	mov    %r15,0x78(%rbx)
    dbf6:	4c 89 a3 80 00 00 00 	mov    %r12,0x80(%rbx)
    dbfd:	48 89 83 88 00 00 00 	mov    %rax,0x88(%rbx)
    dc04:	0f b6 05 7d 21 24 00 	movzbl 0x24217d(%rip),%eax        # 24fd88 <_ZGVZN9benchmark8internal18GetNullLogInstanceEvE3log>
    dc0b:	84 c0                	test   %al,%al
    dc0d:	0f 84 85 00 00 00    	je     dc98 <_ZN9benchmark5StateC1EmRKSt6vectorIiSaIiEEiiPNS_8internal11ThreadTimerEPNS6_13ThreadManagerE+0x1a8>
    dc13:	48 8b 3d 76 21 24 00 	mov    0x242176(%rip),%rdi        # 24fd90 <_ZZN9benchmark8internal18GetNullLogInstanceEvE3log>
    dc1a:	48 85 ff             	test   %rdi,%rdi
    dc1d:	74 11                	je     dc30 <_ZN9benchmark5StateC1EmRKSt6vectorIiSaIiEEiiPNS_8internal11ThreadTimerEPNS6_13ThreadManagerE+0x140>
    dc1f:	48 8d 35 22 65 03 00 	lea    0x36522(%rip),%rsi        # 44148 <_ZTSFvPKvRKN8dyntrace6tracer4regsEE+0x3d8>
    dc26:	ba 22 00 00 00       	mov    $0x22,%edx
    dc2b:	e8 30 de ff ff       	callq  ba60 <_ZSt16__ostream_insertIcSt11char_traitsIcEERSt13basic_ostreamIT_T0_ES6_PKS3_l@plt>
    dc30:	0f b6 05 51 21 24 00 	movzbl 0x242151(%rip),%eax        # 24fd88 <_ZGVZN9benchmark8internal18GetNullLogInstanceEvE3log>
    dc37:	84 c0                	test   %al,%al
    dc39:	0f 84 c1 00 00 00    	je     dd00 <_ZN9benchmark5StateC1EmRKSt6vectorIiSaIiEEiiPNS_8internal11ThreadTimerEPNS6_13ThreadManagerE+0x210>
    dc3f:	48 8b 3d 4a 21 24 00 	mov    0x24214a(%rip),%rdi        # 24fd90 <_ZZN9benchmark8internal18GetNullLogInstanceEvE3log>
    dc46:	48 85 ff             	test   %rdi,%rdi
    dc49:	74 11                	je     dc5c <_ZN9benchmark5StateC1EmRKSt6vectorIiSaIiEEiiPNS_8internal11ThreadTimerEPNS6_13ThreadManagerE+0x16c>
    dc4b:	48 8d 35 2b 62 03 00 	lea    0x3622b(%rip),%rsi        # 43e7d <_ZTSFvPKvRKN8dyntrace6tracer4regsEE+0x10d>
    dc52:	ba 1d 00 00 00       	mov    $0x1d,%edx
    dc57:	e8 04 de ff ff       	callq  ba60 <_ZSt16__ostream_insertIcSt11char_traitsIcEERSt13basic_ostreamIT_T0_ES6_PKS3_l@plt>
    dc5c:	0f b6 05 25 21 24 00 	movzbl 0x242125(%rip),%eax        # 24fd88 <_ZGVZN9benchmark8internal18GetNullLogInstanceEvE3log>
    dc63:	84 c0                	test   %al,%al
    dc65:	74 69                	je     dcd0 <_ZN9benchmark5StateC1EmRKSt6vectorIiSaIiEEiiPNS_8internal11ThreadTimerEPNS6_13ThreadManagerE+0x1e0>
    dc67:	48 8b 3d 22 21 24 00 	mov    0x242122(%rip),%rdi        # 24fd90 <_ZZN9benchmark8internal18GetNullLogInstanceEvE3log>
    dc6e:	48 85 ff             	test   %rdi,%rdi
    dc71:	74 11                	je     dc84 <_ZN9benchmark5StateC1EmRKSt6vectorIiSaIiEEiiPNS_8internal11ThreadTimerEPNS6_13ThreadManagerE+0x194>
    dc73:	48 8d 35 f6 64 03 00 	lea    0x364f6(%rip),%rsi        # 44170 <_ZTSFvPKvRKN8dyntrace6tracer4regsEE+0x400>
    dc7a:	ba 26 00 00 00       	mov    $0x26,%edx
    dc7f:	e8 dc dd ff ff       	callq  ba60 <_ZSt16__ostream_insertIcSt11char_traitsIcEERSt13basic_ostreamIT_T0_ES6_PKS3_l@plt>
    dc84:	48 83 c4 18          	add    $0x18,%rsp
    dc88:	5b                   	pop    %rbx
    dc89:	5d                   	pop    %rbp
    dc8a:	41 5c                	pop    %r12
    dc8c:	41 5d                	pop    %r13
    dc8e:	41 5e                	pop    %r14
    dc90:	41 5f                	pop    %r15
    dc92:	c3                   	retq   
    dc93:	0f 1f 44 00 00       	nopl   0x0(%rax,%rax,1)
    dc98:	48 8d 3d e9 20 24 00 	lea    0x2420e9(%rip),%rdi        # 24fd88 <_ZGVZN9benchmark8internal18GetNullLogInstanceEvE3log>
    dc9f:	e8 9c e0 ff ff       	callq  bd40 <__cxa_guard_acquire@plt>
    dca4:	85 c0                	test   %eax,%eax
    dca6:	0f 84 67 ff ff ff    	je     dc13 <_ZN9benchmark5StateC1EmRKSt6vectorIiSaIiEEiiPNS_8internal11ThreadTimerEPNS6_13ThreadManagerE+0x123>
    dcac:	48 8d 3d d5 20 24 00 	lea    0x2420d5(%rip),%rdi        # 24fd88 <_ZGVZN9benchmark8internal18GetNullLogInstanceEvE3log>
    dcb3:	48 c7 05 d2 20 24 00 	movq   $0x0,0x2420d2(%rip)        # 24fd90 <_ZZN9benchmark8internal18GetNullLogInstanceEvE3log>
    dcba:	00 00 00 00 
    dcbe:	e8 6d db ff ff       	callq  b830 <__cxa_guard_release@plt>
    dcc3:	e9 4b ff ff ff       	jmpq   dc13 <_ZN9benchmark5StateC1EmRKSt6vectorIiSaIiEEiiPNS_8internal11ThreadTimerEPNS6_13ThreadManagerE+0x123>
    dcc8:	0f 1f 84 00 00 00 00 	nopl   0x0(%rax,%rax,1)
    dccf:	00 
    dcd0:	48 8d 3d b1 20 24 00 	lea    0x2420b1(%rip),%rdi        # 24fd88 <_ZGVZN9benchmark8internal18GetNullLogInstanceEvE3log>
    dcd7:	e8 64 e0 ff ff       	callq  bd40 <__cxa_guard_acquire@plt>
    dcdc:	85 c0                	test   %eax,%eax
    dcde:	74 87                	je     dc67 <_ZN9benchmark5StateC1EmRKSt6vectorIiSaIiEEiiPNS_8internal11ThreadTimerEPNS6_13ThreadManagerE+0x177>
    dce0:	48 8d 3d a1 20 24 00 	lea    0x2420a1(%rip),%rdi        # 24fd88 <_ZGVZN9benchmark8internal18GetNullLogInstanceEvE3log>
    dce7:	48 c7 05 9e 20 24 00 	movq   $0x0,0x24209e(%rip)        # 24fd90 <_ZZN9benchmark8internal18GetNullLogInstanceEvE3log>
    dcee:	00 00 00 00 
    dcf2:	e8 39 db ff ff       	callq  b830 <__cxa_guard_release@plt>
    dcf7:	e9 6b ff ff ff       	jmpq   dc67 <_ZN9benchmark5StateC1EmRKSt6vectorIiSaIiEEiiPNS_8internal11ThreadTimerEPNS6_13ThreadManagerE+0x177>
    dcfc:	0f 1f 40 00          	nopl   0x0(%rax)
    dd00:	48 8d 3d 81 20 24 00 	lea    0x242081(%rip),%rdi        # 24fd88 <_ZGVZN9benchmark8internal18GetNullLogInstanceEvE3log>
    dd07:	e8 34 e0 ff ff       	callq  bd40 <__cxa_guard_acquire@plt>
    dd0c:	85 c0                	test   %eax,%eax
    dd0e:	0f 84 2b ff ff ff    	je     dc3f <_ZN9benchmark5StateC1EmRKSt6vectorIiSaIiEEiiPNS_8internal11ThreadTimerEPNS6_13ThreadManagerE+0x14f>
    dd14:	48 8d 3d 6d 20 24 00 	lea    0x24206d(%rip),%rdi        # 24fd88 <_ZGVZN9benchmark8internal18GetNullLogInstanceEvE3log>
    dd1b:	48 c7 05 6a 20 24 00 	movq   $0x0,0x24206a(%rip)        # 24fd90 <_ZZN9benchmark8internal18GetNullLogInstanceEvE3log>
    dd22:	00 00 00 00 
    dd26:	e8 05 db ff ff       	callq  b830 <__cxa_guard_release@plt>
    dd2b:	e9 0f ff ff ff       	jmpq   dc3f <_ZN9benchmark5StateC1EmRKSt6vectorIiSaIiEEiiPNS_8internal11ThreadTimerEPNS6_13ThreadManagerE+0x14f>
    dd30:	e8 8b d9 ff ff       	callq  b6c0 <_ZSt17__throw_bad_allocv@plt>
    dd35:	48 8b 73 50          	mov    0x50(%rbx),%rsi
    dd39:	48 8d 7b 40          	lea    0x40(%rbx),%rdi
    dd3d:	48 89 c5             	mov    %rax,%rbp
    dd40:	e8 4b 3f 00 00       	callq  11c90 <_ZNSt8_Rb_treeINSt7__cxx1112basic_stringIcSt11char_traitsIcESaIcEEESt4pairIKS5_N9benchmark7CounterEESt10_Select1stISA_ESt4lessIS5_ESaISA_EE8_M_eraseEPSt13_Rb_tree_nodeISA_E>
    dd45:	48 8b 7b 10          	mov    0x10(%rbx),%rdi
    dd49:	48 85 ff             	test   %rdi,%rdi
    dd4c:	74 05                	je     dd53 <_ZN9benchmark5StateC1EmRKSt6vectorIiSaIiEEiiPNS_8internal11ThreadTimerEPNS6_13ThreadManagerE+0x263>
    dd4e:	e8 4d dc ff ff       	callq  b9a0 <_ZdlPv@plt>
    dd53:	48 89 ef             	mov    %rbp,%rdi
    dd56:	e8 c5 df ff ff       	callq  bd20 <_Unwind_Resume@plt>
    dd5b:	90                   	nop
    dd5c:	0f 1f 40 00          	nopl   0x0(%rax)

000000000000dd60 <_ZN9benchmark5State13SkipWithErrorEPKc>:
    dd60:	41 55                	push   %r13
    dd62:	41 54                	push   %r12
    dd64:	49 89 f5             	mov    %rsi,%r13
    dd67:	55                   	push   %rbp
    dd68:	53                   	push   %rbx
    dd69:	48 89 fb             	mov    %rdi,%rbx
    dd6c:	48 83 ec 28          	sub    $0x28,%rsp
    dd70:	64 48 8b 04 25 28 00 	mov    %fs:0x28,%rax
    dd77:	00 00 
    dd79:	48 89 44 24 18       	mov    %rax,0x18(%rsp)
    dd7e:	31 c0                	xor    %eax,%eax
    dd80:	0f b6 05 01 20 24 00 	movzbl 0x242001(%rip),%eax        # 24fd88 <_ZGVZN9benchmark8internal18GetNullLogInstanceEvE3log>
    dd87:	84 c0                	test   %al,%al
    dd89:	0f 84 a1 00 00 00    	je     de30 <_ZN9benchmark5State13SkipWithErrorEPKc+0xd0>
    dd8f:	48 8b ab 88 00 00 00 	mov    0x88(%rbx),%rbp
    dd96:	c6 43 3c 01          	movb   $0x1,0x3c(%rbx)
    dd9a:	c6 44 24 08 00       	movb   $0x0,0x8(%rsp)
    dd9f:	48 8d bd a8 00 00 00 	lea    0xa8(%rbp),%rdi
    dda6:	48 85 ff             	test   %rdi,%rdi
    dda9:	48 89 3c 24          	mov    %rdi,(%rsp)
    ddad:	0f 84 7d 01 00 00    	je     df30 <_ZN9benchmark5State13SkipWithErrorEPKc+0x1d0>
    ddb3:	4c 8b 25 0e 12 24 00 	mov    0x24120e(%rip),%r12        # 24efc8 <__pthread_key_create@GLIBC_2.2.5>
    ddba:	4d 85 e4             	test   %r12,%r12
    ddbd:	74 14                	je     ddd3 <_ZN9benchmark5State13SkipWithErrorEPKc+0x73>
    ddbf:	e8 2c de ff ff       	callq  bbf0 <pthread_mutex_lock@plt>
    ddc4:	85 c0                	test   %eax,%eax
    ddc6:	0f 85 73 01 00 00    	jne    df3f <_ZN9benchmark5State13SkipWithErrorEPKc+0x1df>
    ddcc:	48 8b ab 88 00 00 00 	mov    0x88(%rbx),%rbp
    ddd3:	80 7d 70 00          	cmpb   $0x0,0x70(%rbp)
    ddd7:	c6 44 24 08 01       	movb   $0x1,0x8(%rsp)
    dddc:	0f 84 de 00 00 00    	je     dec0 <_ZN9benchmark5State13SkipWithErrorEPKc+0x160>
    dde2:	48 8b 3c 24          	mov    (%rsp),%rdi
    dde6:	48 85 ff             	test   %rdi,%rdi
    dde9:	74 0d                	je     ddf8 <_ZN9benchmark5State13SkipWithErrorEPKc+0x98>
    ddeb:	4d 85 e4             	test   %r12,%r12
    ddee:	74 08                	je     ddf8 <_ZN9benchmark5State13SkipWithErrorEPKc+0x98>
    ddf0:	e8 bb da ff ff       	callq  b8b0 <pthread_mutex_unlock@plt>
    ddf5:	0f 1f 00             	nopl   (%rax)
    ddf8:	48 c7 43 08 01 00 00 	movq   $0x1,0x8(%rbx)
    ddff:	00 
    de00:	48 8b 9b 80 00 00 00 	mov    0x80(%rbx),%rbx
    de07:	80 3b 00             	cmpb   $0x0,(%rbx)
    de0a:	75 54                	jne    de60 <_ZN9benchmark5State13SkipWithErrorEPKc+0x100>
    de0c:	48 8b 44 24 18       	mov    0x18(%rsp),%rax
    de11:	64 48 33 04 25 28 00 	xor    %fs:0x28,%rax
    de18:	00 00 
    de1a:	0f 85 1a 01 00 00    	jne    df3a <_ZN9benchmark5State13SkipWithErrorEPKc+0x1da>
    de20:	48 83 c4 28          	add    $0x28,%rsp
    de24:	5b                   	pop    %rbx
    de25:	5d                   	pop    %rbp
    de26:	41 5c                	pop    %r12
    de28:	41 5d                	pop    %r13
    de2a:	c3                   	retq   
    de2b:	0f 1f 44 00 00       	nopl   0x0(%rax,%rax,1)
    de30:	48 8d 3d 51 1f 24 00 	lea    0x241f51(%rip),%rdi        # 24fd88 <_ZGVZN9benchmark8internal18GetNullLogInstanceEvE3log>
    de37:	e8 04 df ff ff       	callq  bd40 <__cxa_guard_acquire@plt>
    de3c:	85 c0                	test   %eax,%eax
    de3e:	0f 84 4b ff ff ff    	je     dd8f <_ZN9benchmark5State13SkipWithErrorEPKc+0x2f>
    de44:	48 8d 3d 3d 1f 24 00 	lea    0x241f3d(%rip),%rdi        # 24fd88 <_ZGVZN9benchmark8internal18GetNullLogInstanceEvE3log>
    de4b:	48 c7 05 3a 1f 24 00 	movq   $0x0,0x241f3a(%rip)        # 24fd90 <_ZZN9benchmark8internal18GetNullLogInstanceEvE3log>
    de52:	00 00 00 00 
    de56:	e8 d5 d9 ff ff       	callq  b830 <__cxa_guard_release@plt>
    de5b:	e9 2f ff ff ff       	jmpq   dd8f <_ZN9benchmark5State13SkipWithErrorEPKc+0x2f>
    de60:	0f b6 05 21 1f 24 00 	movzbl 0x241f21(%rip),%eax        # 24fd88 <_ZGVZN9benchmark8internal18GetNullLogInstanceEvE3log>
    de67:	84 c0                	test   %al,%al
    de69:	0f 84 91 00 00 00    	je     df00 <_ZN9benchmark5State13SkipWithErrorEPKc+0x1a0>
    de6f:	c6 03 00             	movb   $0x0,(%rbx)
    de72:	e8 b9 dc ff ff       	callq  bb30 <_ZNSt6chrono3_V212steady_clock3nowEv@plt>
    de77:	66 0f ef c0          	pxor   %xmm0,%xmm0
    de7b:	f2 48 0f 2a c0       	cvtsi2sd %rax,%xmm0
    de80:	f2 0f 5e 05 c0 64 03 	divsd  0x364c0(%rip),%xmm0        # 44348 <_ZTSNSt6thread11_State_implINS_8_InvokerISt5tupleIJPFvPKN9benchmark8internal9Benchmark8InstanceEmiPNS4_13ThreadManagerEES8_miSA_EEEEEE+0x88>
    de87:	00 
    de88:	f2 0f 5c 43 08       	subsd  0x8(%rbx),%xmm0
    de8d:	f2 0f 58 43 18       	addsd  0x18(%rbx),%xmm0
    de92:	f2 0f 11 43 18       	movsd  %xmm0,0x18(%rbx)
    de97:	e8 c4 58 03 00       	callq  43760 <_ZN9benchmark14ThreadCPUUsageEv>
    de9c:	f2 0f 5c 43 10       	subsd  0x10(%rbx),%xmm0
    dea1:	66 0f ef c9          	pxor   %xmm1,%xmm1
    dea5:	f2 0f 5f c8          	maxsd  %xmm0,%xmm1
    dea9:	f2 0f 10 43 20       	movsd  0x20(%rbx),%xmm0
    deae:	f2 0f 58 c1          	addsd  %xmm1,%xmm0
    deb2:	f2 0f 11 43 20       	movsd  %xmm0,0x20(%rbx)
    deb7:	e9 50 ff ff ff       	jmpq   de0c <_ZN9benchmark5State13SkipWithErrorEPKc+0xac>
    debc:	0f 1f 40 00          	nopl   0x0(%rax)
    dec0:	4c 89 ef             	mov    %r13,%rdi
    dec3:	e8 58 d8 ff ff       	callq  b720 <strlen@plt>
    dec8:	48 8b 55 58          	mov    0x58(%rbp),%rdx
    decc:	48 8d 7d 50          	lea    0x50(%rbp),%rdi
    ded0:	49 89 c0             	mov    %rax,%r8
    ded3:	4c 89 e9             	mov    %r13,%rcx
    ded6:	31 f6                	xor    %esi,%esi
    ded8:	e8 13 da ff ff       	callq  b8f0 <_ZNSt7__cxx1112basic_stringIcSt11char_traitsIcESaIcEE10_M_replaceEmmPKcm@plt>
    dedd:	80 7c 24 08 00       	cmpb   $0x0,0x8(%rsp)
    dee2:	48 8b 83 88 00 00 00 	mov    0x88(%rbx),%rax
    dee9:	c6 40 70 01          	movb   $0x1,0x70(%rax)
    deed:	0f 84 05 ff ff ff    	je     ddf8 <_ZN9benchmark5State13SkipWithErrorEPKc+0x98>
    def3:	e9 ea fe ff ff       	jmpq   dde2 <_ZN9benchmark5State13SkipWithErrorEPKc+0x82>
    def8:	0f 1f 84 00 00 00 00 	nopl   0x0(%rax,%rax,1)
    deff:	00 
    df00:	48 8d 3d 81 1e 24 00 	lea    0x241e81(%rip),%rdi        # 24fd88 <_ZGVZN9benchmark8internal18GetNullLogInstanceEvE3log>
    df07:	e8 34 de ff ff       	callq  bd40 <__cxa_guard_acquire@plt>
    df0c:	85 c0                	test   %eax,%eax
    df0e:	0f 84 5b ff ff ff    	je     de6f <_ZN9benchmark5State13SkipWithErrorEPKc+0x10f>
    df14:	48 8d 3d 6d 1e 24 00 	lea    0x241e6d(%rip),%rdi        # 24fd88 <_ZGVZN9benchmark8internal18GetNullLogInstanceEvE3log>
    df1b:	48 c7 05 6a 1e 24 00 	movq   $0x0,0x241e6a(%rip)        # 24fd90 <_ZZN9benchmark8internal18GetNullLogInstanceEvE3log>
    df22:	00 00 00 00 
    df26:	e8 05 d9 ff ff       	callq  b830 <__cxa_guard_release@plt>
    df2b:	e9 3f ff ff ff       	jmpq   de6f <_ZN9benchmark5State13SkipWithErrorEPKc+0x10f>
    df30:	bf 01 00 00 00       	mov    $0x1,%edi
    df35:	e8 06 d9 ff ff       	callq  b840 <_ZSt20__throw_system_errori@plt>
    df3a:	e8 01 db ff ff       	callq  ba40 <__stack_chk_fail@plt>
    df3f:	89 c7                	mov    %eax,%edi
    df41:	e8 fa d8 ff ff       	callq  b840 <_ZSt20__throw_system_errori@plt>
    df46:	80 7c 24 08 00       	cmpb   $0x0,0x8(%rsp)
    df4b:	48 89 c3             	mov    %rax,%rbx
    df4e:	74 08                	je     df58 <_ZN9benchmark5State13SkipWithErrorEPKc+0x1f8>
    df50:	48 89 e7             	mov    %rsp,%rdi
    df53:	e8 08 44 00 00       	callq  12360 <_ZNSt11unique_lockISt5mutexE6unlockEv>
    df58:	48 89 df             	mov    %rbx,%rdi
    df5b:	e8 c0 dd ff ff       	callq  bd20 <_Unwind_Resume@plt>

000000000000df60 <_ZN9benchmark5State8SetLabelEPKc>:
    df60:	41 55                	push   %r13
    df62:	41 54                	push   %r12
    df64:	49 89 fc             	mov    %rdi,%r12
    df67:	55                   	push   %rbp
    df68:	53                   	push   %rbx
    df69:	48 83 ec 28          	sub    $0x28,%rsp
    df6d:	48 8b 9f 88 00 00 00 	mov    0x88(%rdi),%rbx
    df74:	64 48 8b 04 25 28 00 	mov    %fs:0x28,%rax
    df7b:	00 00 
    df7d:	48 89 44 24 18       	mov    %rax,0x18(%rsp)
    df82:	31 c0                	xor    %eax,%eax
    df84:	c6 44 24 08 00       	movb   $0x0,0x8(%rsp)
    df89:	48 8d bb a8 00 00 00 	lea    0xa8(%rbx),%rdi
    df90:	48 85 ff             	test   %rdi,%rdi
    df93:	48 89 3c 24          	mov    %rdi,(%rsp)
    df97:	0f 84 85 00 00 00    	je     e022 <_ZN9benchmark5State8SetLabelEPKc+0xc2>
    df9d:	4c 8b 2d 24 10 24 00 	mov    0x241024(%rip),%r13        # 24efc8 <__pthread_key_create@GLIBC_2.2.5>
    dfa4:	48 89 f5             	mov    %rsi,%rbp
    dfa7:	4d 85 ed             	test   %r13,%r13
    dfaa:	74 11                	je     dfbd <_ZN9benchmark5State8SetLabelEPKc+0x5d>
    dfac:	e8 3f dc ff ff       	callq  bbf0 <pthread_mutex_lock@plt>
    dfb1:	85 c0                	test   %eax,%eax
    dfb3:	75 77                	jne    e02c <_ZN9benchmark5State8SetLabelEPKc+0xcc>
    dfb5:	49 8b 9c 24 88 00 00 	mov    0x88(%r12),%rbx
    dfbc:	00 
    dfbd:	48 89 ef             	mov    %rbp,%rdi
    dfc0:	c6 44 24 08 01       	movb   $0x1,0x8(%rsp)
    dfc5:	e8 56 d7 ff ff       	callq  b720 <strlen@plt>
    dfca:	48 8b 53 38          	mov    0x38(%rbx),%rdx
    dfce:	48 8d 7b 30          	lea    0x30(%rbx),%rdi
    dfd2:	49 89 c0             	mov    %rax,%r8
    dfd5:	48 89 e9             	mov    %rbp,%rcx
    dfd8:	31 f6                	xor    %esi,%esi
    dfda:	e8 11 d9 ff ff       	callq  b8f0 <_ZNSt7__cxx1112basic_stringIcSt11char_traitsIcESaIcEE10_M_replaceEmmPKcm@plt>
    dfdf:	80 7c 24 08 00       	cmpb   $0x0,0x8(%rsp)
    dfe4:	75 22                	jne    e008 <_ZN9benchmark5State8SetLabelEPKc+0xa8>
    dfe6:	48 8b 44 24 18       	mov    0x18(%rsp),%rax
    dfeb:	64 48 33 04 25 28 00 	xor    %fs:0x28,%rax
    dff2:	00 00 
    dff4:	75 27                	jne    e01d <_ZN9benchmark5State8SetLabelEPKc+0xbd>
    dff6:	48 83 c4 28          	add    $0x28,%rsp
    dffa:	5b                   	pop    %rbx
    dffb:	5d                   	pop    %rbp
    dffc:	41 5c                	pop    %r12
    dffe:	41 5d                	pop    %r13
    e000:	c3                   	retq   
    e001:	0f 1f 80 00 00 00 00 	nopl   0x0(%rax)
    e008:	48 8b 3c 24          	mov    (%rsp),%rdi
    e00c:	48 85 ff             	test   %rdi,%rdi
    e00f:	74 d5                	je     dfe6 <_ZN9benchmark5State8SetLabelEPKc+0x86>
    e011:	4d 85 ed             	test   %r13,%r13
    e014:	74 d0                	je     dfe6 <_ZN9benchmark5State8SetLabelEPKc+0x86>
    e016:	e8 95 d8 ff ff       	callq  b8b0 <pthread_mutex_unlock@plt>
    e01b:	eb c9                	jmp    dfe6 <_ZN9benchmark5State8SetLabelEPKc+0x86>
    e01d:	e8 1e da ff ff       	callq  ba40 <__stack_chk_fail@plt>
    e022:	bf 01 00 00 00       	mov    $0x1,%edi
    e027:	e8 14 d8 ff ff       	callq  b840 <_ZSt20__throw_system_errori@plt>
    e02c:	89 c7                	mov    %eax,%edi
    e02e:	e8 0d d8 ff ff       	callq  b840 <_ZSt20__throw_system_errori@plt>
    e033:	80 7c 24 08 00       	cmpb   $0x0,0x8(%rsp)
    e038:	48 89 c3             	mov    %rax,%rbx
    e03b:	74 08                	je     e045 <_ZN9benchmark5State8SetLabelEPKc+0xe5>
    e03d:	48 89 e7             	mov    %rsp,%rdi
    e040:	e8 1b 43 00 00       	callq  12360 <_ZNSt11unique_lockISt5mutexE6unlockEv>
    e045:	48 89 df             	mov    %rbx,%rdi
    e048:	e8 d3 dc ff ff       	callq  bd20 <_Unwind_Resume@plt>
    e04d:	0f 1f 00             	nopl   (%rax)

000000000000e050 <_ZN9benchmark8internal12_GLOBAL__N_111RunInThreadEPKNS0_9Benchmark8InstanceEmiPNS0_13ThreadManagerE>:
    e050:	41 55                	push   %r13
    e052:	41 54                	push   %r12
    e054:	49 89 fc             	mov    %rdi,%r12
    e057:	55                   	push   %rbp
    e058:	53                   	push   %rbx
    e059:	48 89 cb             	mov    %rcx,%rbx
    e05c:	48 81 ec e8 00 00 00 	sub    $0xe8,%rsp
    e063:	44 8b 87 b0 00 00 00 	mov    0xb0(%rdi),%r8d
    e06a:	64 48 8b 04 25 28 00 	mov    %fs:0x28,%rax
    e071:	00 00 
    e073:	48 89 84 24 d8 00 00 	mov    %rax,0xd8(%rsp)
    e07a:	00 
    e07b:	31 c0                	xor    %eax,%eax
    e07d:	c6 44 24 10 00       	movb   $0x0,0x10(%rsp)
    e082:	48 c7 44 24 18 00 00 	movq   $0x0,0x18(%rsp)
    e089:	00 00 
    e08b:	48 8d 6c 24 40       	lea    0x40(%rsp),%rbp
    e090:	48 c7 44 24 20 00 00 	movq   $0x0,0x20(%rsp)
    e097:	00 00 
    e099:	48 c7 44 24 28 00 00 	movq   $0x0,0x28(%rsp)
    e0a0:	00 00 
    e0a2:	48 83 ec 08          	sub    $0x8,%rsp
    e0a6:	48 c7 44 24 38 00 00 	movq   $0x0,0x38(%rsp)
    e0ad:	00 00 
    e0af:	48 c7 44 24 40 00 00 	movq   $0x0,0x40(%rsp)
    e0b6:	00 00 
    e0b8:	48 8d 47 30          	lea    0x30(%rdi),%rax
    e0bc:	51                   	push   %rcx
    e0bd:	48 89 ef             	mov    %rbp,%rdi
    e0c0:	89 d1                	mov    %edx,%ecx
    e0c2:	48 89 c2             	mov    %rax,%rdx
    e0c5:	4c 8d 4c 24 20       	lea    0x20(%rsp),%r9
    e0ca:	e8 21 fa ff ff       	callq  daf0 <_ZN9benchmark5StateC1EmRKSt6vectorIiSaIiEEiiPNS_8internal11ThreadTimerEPNS6_13ThreadManagerE>
    e0cf:	4d 8b 64 24 20       	mov    0x20(%r12),%r12
    e0d4:	59                   	pop    %rcx
    e0d5:	48 8d 0d 14 3b 00 00 	lea    0x3b14(%rip),%rcx        # 11bf0 <_ZN9benchmark7Fixture3RunERNS_5StateE>
    e0dc:	49 8b 04 24          	mov    (%r12),%rax
    e0e0:	5e                   	pop    %rsi
    e0e1:	48 8b 50 10          	mov    0x10(%rax),%rdx
    e0e5:	48 39 ca             	cmp    %rcx,%rdx
    e0e8:	0f 85 42 03 00 00    	jne    e430 <_ZN9benchmark8internal12_GLOBAL__N_111RunInThreadEPKNS0_9Benchmark8InstanceEmiPNS0_13ThreadManagerE+0x3e0>
    e0ee:	48 8b 50 28          	mov    0x28(%rax),%rdx
    e0f2:	48 8d 0d d7 3a 00 00 	lea    0x3ad7(%rip),%rcx        # 11bd0 <_ZN9benchmark7Fixture5SetUpERNS_5StateE>
    e0f9:	48 39 ca             	cmp    %rcx,%rdx
    e0fc:	0f 85 3e 03 00 00    	jne    e440 <_ZN9benchmark8internal12_GLOBAL__N_111RunInThreadEPKNS0_9Benchmark8InstanceEmiPNS0_13ThreadManagerE+0x3f0>
    e102:	48 8b 50 18          	mov    0x18(%rax),%rdx
    e106:	48 8d 0d 33 3a 00 00 	lea    0x3a33(%rip),%rcx        # 11b40 <_ZN9benchmark7Fixture5SetUpERKNS_5StateE>
    e10d:	48 39 ca             	cmp    %rcx,%rdx
    e110:	0f 85 2a 03 00 00    	jne    e440 <_ZN9benchmark8internal12_GLOBAL__N_111RunInThreadEPKNS0_9Benchmark8InstanceEmiPNS0_13ThreadManagerE+0x3f0>
    e116:	48 89 ee             	mov    %rbp,%rsi
    e119:	4c 89 e7             	mov    %r12,%rdi
    e11c:	ff 50 38             	callq  *0x38(%rax)
    e11f:	49 8b 04 24          	mov    (%r12),%rax
    e123:	48 8d 0d 86 3a 00 00 	lea    0x3a86(%rip),%rcx        # 11bb0 <_ZN9benchmark7Fixture8TearDownERNS_5StateE>
    e12a:	48 8b 50 30          	mov    0x30(%rax),%rdx
    e12e:	48 39 ca             	cmp    %rcx,%rdx
    e131:	0f 85 f9 02 00 00    	jne    e430 <_ZN9benchmark8internal12_GLOBAL__N_111RunInThreadEPKNS0_9Benchmark8InstanceEmiPNS0_13ThreadManagerE+0x3e0>
    e137:	48 8b 40 20          	mov    0x20(%rax),%rax
    e13b:	48 8d 15 0e 3a 00 00 	lea    0x3a0e(%rip),%rdx        # 11b50 <_ZN9benchmark7Fixture8TearDownERKNS_5StateE>
    e142:	48 39 d0             	cmp    %rdx,%rax
    e145:	0f 85 5d 03 00 00    	jne    e4a8 <_ZN9benchmark8internal12_GLOBAL__N_111RunInThreadEPKNS0_9Benchmark8InstanceEmiPNS0_13ThreadManagerE+0x458>
    e14b:	0f b6 05 36 1c 24 00 	movzbl 0x241c36(%rip),%eax        # 24fd88 <_ZGVZN9benchmark8internal18GetNullLogInstanceEvE3log>
    e152:	84 c0                	test   %al,%al
    e154:	0f 84 16 02 00 00    	je     e370 <_ZN9benchmark8internal12_GLOBAL__N_111RunInThreadEPKNS0_9Benchmark8InstanceEmiPNS0_13ThreadManagerE+0x320>
    e15a:	48 8b 3d 2f 1c 24 00 	mov    0x241c2f(%rip),%rdi        # 24fd90 <_ZZN9benchmark8internal18GetNullLogInstanceEvE3log>
    e161:	48 85 ff             	test   %rdi,%rdi
    e164:	74 11                	je     e177 <_ZN9benchmark8internal12_GLOBAL__N_111RunInThreadEPKNS0_9Benchmark8InstanceEmiPNS0_13ThreadManagerE+0x127>
    e166:	48 8d 35 2b 60 03 00 	lea    0x3602b(%rip),%rsi        # 44198 <_ZTSFvPKvRKN8dyntrace6tracer4regsEE+0x428>
    e16d:	ba 3e 00 00 00       	mov    $0x3e,%edx
    e172:	e8 e9 d8 ff ff       	callq  ba60 <_ZSt16__ostream_insertIcSt11char_traitsIcEERSt13basic_ostreamIT_T0_ES6_PKS3_l@plt>
    e177:	48 8d bb a8 00 00 00 	lea    0xa8(%rbx),%rdi
    e17e:	c6 44 24 08 00       	movb   $0x0,0x8(%rsp)
    e183:	48 85 ff             	test   %rdi,%rdi
    e186:	48 89 3c 24          	mov    %rdi,(%rsp)
    e18a:	0f 84 63 03 00 00    	je     e4f3 <_ZN9benchmark8internal12_GLOBAL__N_111RunInThreadEPKNS0_9Benchmark8InstanceEmiPNS0_13ThreadManagerE+0x4a3>
    e190:	4c 8b 25 31 0e 24 00 	mov    0x240e31(%rip),%r12        # 24efc8 <__pthread_key_create@GLIBC_2.2.5>
    e197:	4d 85 e4             	test   %r12,%r12
    e19a:	74 0d                	je     e1a9 <_ZN9benchmark8internal12_GLOBAL__N_111RunInThreadEPKNS0_9Benchmark8InstanceEmiPNS0_13ThreadManagerE+0x159>
    e19c:	e8 4f da ff ff       	callq  bbf0 <pthread_mutex_lock@plt>
    e1a1:	85 c0                	test   %eax,%eax
    e1a3:	0f 85 54 03 00 00    	jne    e4fd <_ZN9benchmark8internal12_GLOBAL__N_111RunInThreadEPKNS0_9Benchmark8InstanceEmiPNS0_13ThreadManagerE+0x4ad>
    e1a9:	c6 44 24 08 01       	movb   $0x1,0x8(%rsp)
    e1ae:	0f b6 05 d3 1b 24 00 	movzbl 0x241bd3(%rip),%eax        # 24fd88 <_ZGVZN9benchmark8internal18GetNullLogInstanceEvE3log>
    e1b5:	84 c0                	test   %al,%al
    e1b7:	0f 84 43 02 00 00    	je     e400 <_ZN9benchmark8internal12_GLOBAL__N_111RunInThreadEPKNS0_9Benchmark8InstanceEmiPNS0_13ThreadManagerE+0x3b0>
    e1bd:	f2 0f 10 43 08       	movsd  0x8(%rbx),%xmm0
    e1c2:	f2 0f 58 44 24 30    	addsd  0x30(%rsp),%xmm0
    e1c8:	f2 0f 11 43 08       	movsd  %xmm0,0x8(%rbx)
    e1cd:	0f b6 05 b4 1b 24 00 	movzbl 0x241bb4(%rip),%eax        # 24fd88 <_ZGVZN9benchmark8internal18GetNullLogInstanceEvE3log>
    e1d4:	84 c0                	test   %al,%al
    e1d6:	0f 84 f4 01 00 00    	je     e3d0 <_ZN9benchmark8internal12_GLOBAL__N_111RunInThreadEPKNS0_9Benchmark8InstanceEmiPNS0_13ThreadManagerE+0x380>
    e1dc:	f2 0f 10 03          	movsd  (%rbx),%xmm0
    e1e0:	f2 0f 58 44 24 28    	addsd  0x28(%rsp),%xmm0
    e1e6:	f2 0f 11 03          	movsd  %xmm0,(%rbx)
    e1ea:	0f b6 05 97 1b 24 00 	movzbl 0x241b97(%rip),%eax        # 24fd88 <_ZGVZN9benchmark8internal18GetNullLogInstanceEvE3log>
    e1f1:	84 c0                	test   %al,%al
    e1f3:	0f 84 a7 01 00 00    	je     e3a0 <_ZN9benchmark8internal12_GLOBAL__N_111RunInThreadEPKNS0_9Benchmark8InstanceEmiPNS0_13ThreadManagerE+0x350>
    e1f9:	f2 0f 10 43 10       	movsd  0x10(%rbx),%xmm0
    e1fe:	8b 44 24 78          	mov    0x78(%rsp),%eax
    e202:	48 8d 75 40          	lea    0x40(%rbp),%rsi
    e206:	f3 0f 6f 4b 18       	movdqu 0x18(%rbx),%xmm1
    e20b:	48 8d 7b 78          	lea    0x78(%rbx),%rdi
    e20f:	f2 0f 58 44 24 38    	addsd  0x38(%rsp),%xmm0
    e215:	01 43 28             	add    %eax,0x28(%rbx)
    e218:	f2 0f 11 43 10       	movsd  %xmm0,0x10(%rbx)
    e21d:	f3 0f 6f 44 24 68    	movdqu 0x68(%rsp),%xmm0
    e223:	66 0f d4 c1          	paddq  %xmm1,%xmm0
    e227:	0f 11 43 18          	movups %xmm0,0x18(%rbx)
    e22b:	e8 f0 48 02 00       	callq  32b20 <_ZN9benchmark8internal9IncrementEPSt3mapINSt7__cxx1112basic_stringIcSt11char_traitsIcESaIcEEENS_7CounterESt4lessIS7_ESaISt4pairIKS7_S8_EEERKSF_>
    e230:	80 7c 24 08 00       	cmpb   $0x0,0x8(%rsp)
    e235:	0f 85 e5 00 00 00    	jne    e320 <_ZN9benchmark8internal12_GLOBAL__N_111RunInThreadEPKNS0_9Benchmark8InstanceEmiPNS0_13ThreadManagerE+0x2d0>
    e23b:	4d 85 e4             	test   %r12,%r12
    e23e:	4c 8d ab d8 00 00 00 	lea    0xd8(%rbx),%r13
    e245:	0f 84 eb 00 00 00    	je     e336 <_ZN9benchmark8internal12_GLOBAL__N_111RunInThreadEPKNS0_9Benchmark8InstanceEmiPNS0_13ThreadManagerE+0x2e6>
    e24b:	4c 89 ef             	mov    %r13,%rdi
    e24e:	e8 9d d9 ff ff       	callq  bbf0 <pthread_mutex_lock@plt>
    e253:	85 c0                	test   %eax,%eax
    e255:	0f 85 79 02 00 00    	jne    e4d4 <_ZN9benchmark8internal12_GLOBAL__N_111RunInThreadEPKNS0_9Benchmark8InstanceEmiPNS0_13ThreadManagerE+0x484>
    e25b:	8b 93 38 01 00 00    	mov    0x138(%rbx),%edx
    e261:	83 ab 30 01 00 00 01 	subl   $0x1,0x130(%rbx)
    e268:	85 d2                	test   %edx,%edx
    e26a:	74 0c                	je     e278 <_ZN9benchmark8internal12_GLOBAL__N_111RunInThreadEPKNS0_9Benchmark8InstanceEmiPNS0_13ThreadManagerE+0x228>
    e26c:	48 8d bb 00 01 00 00 	lea    0x100(%rbx),%rdi
    e273:	e8 48 da ff ff       	callq  bcc0 <_ZNSt18condition_variable10notify_allEv@plt>
    e278:	4c 89 ef             	mov    %r13,%rdi
    e27b:	e8 30 d6 ff ff       	callq  b8b0 <pthread_mutex_unlock@plt>
    e280:	f0 83 ab d0 00 00 00 	lock subl $0x1,0xd0(%rbx)
    e287:	01 
    e288:	0f 84 ca 01 00 00    	je     e458 <_ZN9benchmark8internal12_GLOBAL__N_111RunInThreadEPKNS0_9Benchmark8InstanceEmiPNS0_13ThreadManagerE+0x408>
    e28e:	48 8b 9c 24 90 00 00 	mov    0x90(%rsp),%rbx
    e295:	00 
    e296:	48 83 c5 40          	add    $0x40,%rbp
    e29a:	48 85 db             	test   %rbx,%rbx
    e29d:	74 46                	je     e2e5 <_ZN9benchmark8internal12_GLOBAL__N_111RunInThreadEPKNS0_9Benchmark8InstanceEmiPNS0_13ThreadManagerE+0x295>
    e29f:	48 8b 73 18          	mov    0x18(%rbx),%rsi
    e2a3:	48 89 ef             	mov    %rbp,%rdi
    e2a6:	e8 e5 39 00 00       	callq  11c90 <_ZNSt8_Rb_treeINSt7__cxx1112basic_stringIcSt11char_traitsIcESaIcEEESt4pairIKS5_N9benchmark7CounterEESt10_Select1stISA_ESt4lessIS5_ESaISA_EE8_M_eraseEPSt13_Rb_tree_nodeISA_E>
    e2ab:	48 8b 7b 20          	mov    0x20(%rbx),%rdi
    e2af:	48 8d 43 30          	lea    0x30(%rbx),%rax
    e2b3:	4c 8b 63 10          	mov    0x10(%rbx),%r12
    e2b7:	48 39 c7             	cmp    %rax,%rdi
    e2ba:	74 1c                	je     e2d8 <_ZN9benchmark8internal12_GLOBAL__N_111RunInThreadEPKNS0_9Benchmark8InstanceEmiPNS0_13ThreadManagerE+0x288>
    e2bc:	e8 df d6 ff ff       	callq  b9a0 <_ZdlPv@plt>
    e2c1:	48 89 df             	mov    %rbx,%rdi
    e2c4:	e8 d7 d6 ff ff       	callq  b9a0 <_ZdlPv@plt>
    e2c9:	4d 85 e4             	test   %r12,%r12
    e2cc:	74 17                	je     e2e5 <_ZN9benchmark8internal12_GLOBAL__N_111RunInThreadEPKNS0_9Benchmark8InstanceEmiPNS0_13ThreadManagerE+0x295>
    e2ce:	4c 89 e3             	mov    %r12,%rbx
    e2d1:	eb cc                	jmp    e29f <_ZN9benchmark8internal12_GLOBAL__N_111RunInThreadEPKNS0_9Benchmark8InstanceEmiPNS0_13ThreadManagerE+0x24f>
    e2d3:	0f 1f 44 00 00       	nopl   0x0(%rax,%rax,1)
    e2d8:	48 89 df             	mov    %rbx,%rdi
    e2db:	e8 c0 d6 ff ff       	callq  b9a0 <_ZdlPv@plt>
    e2e0:	4d 85 e4             	test   %r12,%r12
    e2e3:	75 e9                	jne    e2ce <_ZN9benchmark8internal12_GLOBAL__N_111RunInThreadEPKNS0_9Benchmark8InstanceEmiPNS0_13ThreadManagerE+0x27e>
    e2e5:	48 8b 7c 24 50       	mov    0x50(%rsp),%rdi
    e2ea:	48 85 ff             	test   %rdi,%rdi
    e2ed:	74 05                	je     e2f4 <_ZN9benchmark8internal12_GLOBAL__N_111RunInThreadEPKNS0_9Benchmark8InstanceEmiPNS0_13ThreadManagerE+0x2a4>
    e2ef:	e8 ac d6 ff ff       	callq  b9a0 <_ZdlPv@plt>
    e2f4:	48 8b 84 24 d8 00 00 	mov    0xd8(%rsp),%rax
    e2fb:	00 
    e2fc:	64 48 33 04 25 28 00 	xor    %fs:0x28,%rax
    e303:	00 00 
    e305:	0f 85 e3 01 00 00    	jne    e4ee <_ZN9benchmark8internal12_GLOBAL__N_111RunInThreadEPKNS0_9Benchmark8InstanceEmiPNS0_13ThreadManagerE+0x49e>
    e30b:	48 81 c4 e8 00 00 00 	add    $0xe8,%rsp
    e312:	5b                   	pop    %rbx
    e313:	5d                   	pop    %rbp
    e314:	41 5c                	pop    %r12
    e316:	41 5d                	pop    %r13
    e318:	c3                   	retq   
    e319:	0f 1f 80 00 00 00 00 	nopl   0x0(%rax)
    e320:	48 8b 3c 24          	mov    (%rsp),%rdi
    e324:	48 85 ff             	test   %rdi,%rdi
    e327:	0f 84 0e ff ff ff    	je     e23b <_ZN9benchmark8internal12_GLOBAL__N_111RunInThreadEPKNS0_9Benchmark8InstanceEmiPNS0_13ThreadManagerE+0x1eb>
    e32d:	4d 85 e4             	test   %r12,%r12
    e330:	0f 85 5a 01 00 00    	jne    e490 <_ZN9benchmark8internal12_GLOBAL__N_111RunInThreadEPKNS0_9Benchmark8InstanceEmiPNS0_13ThreadManagerE+0x440>
    e336:	8b 83 38 01 00 00    	mov    0x138(%rbx),%eax
    e33c:	83 ab 30 01 00 00 01 	subl   $0x1,0x130(%rbx)
    e343:	85 c0                	test   %eax,%eax
    e345:	0f 85 6a 01 00 00    	jne    e4b5 <_ZN9benchmark8internal12_GLOBAL__N_111RunInThreadEPKNS0_9Benchmark8InstanceEmiPNS0_13ThreadManagerE+0x465>
    e34b:	f0 83 ab d0 00 00 00 	lock subl $0x1,0xd0(%rbx)
    e352:	01 
    e353:	0f 85 35 ff ff ff    	jne    e28e <_ZN9benchmark8internal12_GLOBAL__N_111RunInThreadEPKNS0_9Benchmark8InstanceEmiPNS0_13ThreadManagerE+0x23e>
    e359:	48 8d bb 68 01 00 00 	lea    0x168(%rbx),%rdi
    e360:	e8 5b d9 ff ff       	callq  bcc0 <_ZNSt18condition_variable10notify_allEv@plt>
    e365:	e9 24 ff ff ff       	jmpq   e28e <_ZN9benchmark8internal12_GLOBAL__N_111RunInThreadEPKNS0_9Benchmark8InstanceEmiPNS0_13ThreadManagerE+0x23e>
    e36a:	66 0f 1f 44 00 00    	nopw   0x0(%rax,%rax,1)
    e370:	48 8d 3d 11 1a 24 00 	lea    0x241a11(%rip),%rdi        # 24fd88 <_ZGVZN9benchmark8internal18GetNullLogInstanceEvE3log>
    e377:	e8 c4 d9 ff ff       	callq  bd40 <__cxa_guard_acquire@plt>
    e37c:	85 c0                	test   %eax,%eax
    e37e:	0f 84 d6 fd ff ff    	je     e15a <_ZN9benchmark8internal12_GLOBAL__N_111RunInThreadEPKNS0_9Benchmark8InstanceEmiPNS0_13ThreadManagerE+0x10a>
    e384:	48 8d 3d fd 19 24 00 	lea    0x2419fd(%rip),%rdi        # 24fd88 <_ZGVZN9benchmark8internal18GetNullLogInstanceEvE3log>
    e38b:	48 c7 05 fa 19 24 00 	movq   $0x0,0x2419fa(%rip)        # 24fd90 <_ZZN9benchmark8internal18GetNullLogInstanceEvE3log>
    e392:	00 00 00 00 
    e396:	e8 95 d4 ff ff       	callq  b830 <__cxa_guard_release@plt>
    e39b:	e9 ba fd ff ff       	jmpq   e15a <_ZN9benchmark8internal12_GLOBAL__N_111RunInThreadEPKNS0_9Benchmark8InstanceEmiPNS0_13ThreadManagerE+0x10a>
    e3a0:	48 8d 3d e1 19 24 00 	lea    0x2419e1(%rip),%rdi        # 24fd88 <_ZGVZN9benchmark8internal18GetNullLogInstanceEvE3log>
    e3a7:	e8 94 d9 ff ff       	callq  bd40 <__cxa_guard_acquire@plt>
    e3ac:	85 c0                	test   %eax,%eax
    e3ae:	0f 84 45 fe ff ff    	je     e1f9 <_ZN9benchmark8internal12_GLOBAL__N_111RunInThreadEPKNS0_9Benchmark8InstanceEmiPNS0_13ThreadManagerE+0x1a9>
    e3b4:	48 8d 3d cd 19 24 00 	lea    0x2419cd(%rip),%rdi        # 24fd88 <_ZGVZN9benchmark8internal18GetNullLogInstanceEvE3log>
    e3bb:	48 c7 05 ca 19 24 00 	movq   $0x0,0x2419ca(%rip)        # 24fd90 <_ZZN9benchmark8internal18GetNullLogInstanceEvE3log>
    e3c2:	00 00 00 00 
    e3c6:	e8 65 d4 ff ff       	callq  b830 <__cxa_guard_release@plt>
    e3cb:	e9 29 fe ff ff       	jmpq   e1f9 <_ZN9benchmark8internal12_GLOBAL__N_111RunInThreadEPKNS0_9Benchmark8InstanceEmiPNS0_13ThreadManagerE+0x1a9>
    e3d0:	48 8d 3d b1 19 24 00 	lea    0x2419b1(%rip),%rdi        # 24fd88 <_ZGVZN9benchmark8internal18GetNullLogInstanceEvE3log>
    e3d7:	e8 64 d9 ff ff       	callq  bd40 <__cxa_guard_acquire@plt>
    e3dc:	85 c0                	test   %eax,%eax
    e3de:	0f 84 f8 fd ff ff    	je     e1dc <_ZN9benchmark8internal12_GLOBAL__N_111RunInThreadEPKNS0_9Benchmark8InstanceEmiPNS0_13ThreadManagerE+0x18c>
    e3e4:	48 8d 3d 9d 19 24 00 	lea    0x24199d(%rip),%rdi        # 24fd88 <_ZGVZN9benchmark8internal18GetNullLogInstanceEvE3log>
    e3eb:	48 c7 05 9a 19 24 00 	movq   $0x0,0x24199a(%rip)        # 24fd90 <_ZZN9benchmark8internal18GetNullLogInstanceEvE3log>
    e3f2:	00 00 00 00 
    e3f6:	e8 35 d4 ff ff       	callq  b830 <__cxa_guard_release@plt>
    e3fb:	e9 dc fd ff ff       	jmpq   e1dc <_ZN9benchmark8internal12_GLOBAL__N_111RunInThreadEPKNS0_9Benchmark8InstanceEmiPNS0_13ThreadManagerE+0x18c>
    e400:	48 8d 3d 81 19 24 00 	lea    0x241981(%rip),%rdi        # 24fd88 <_ZGVZN9benchmark8internal18GetNullLogInstanceEvE3log>
    e407:	e8 34 d9 ff ff       	callq  bd40 <__cxa_guard_acquire@plt>
    e40c:	85 c0                	test   %eax,%eax
    e40e:	0f 84 a9 fd ff ff    	je     e1bd <_ZN9benchmark8internal12_GLOBAL__N_111RunInThreadEPKNS0_9Benchmark8InstanceEmiPNS0_13ThreadManagerE+0x16d>
    e414:	48 8d 3d 6d 19 24 00 	lea    0x24196d(%rip),%rdi        # 24fd88 <_ZGVZN9benchmark8internal18GetNullLogInstanceEvE3log>
    e41b:	48 c7 05 6a 19 24 00 	movq   $0x0,0x24196a(%rip)        # 24fd90 <_ZZN9benchmark8internal18GetNullLogInstanceEvE3log>
    e422:	00 00 00 00 
    e426:	e8 05 d4 ff ff       	callq  b830 <__cxa_guard_release@plt>
    e42b:	e9 8d fd ff ff       	jmpq   e1bd <_ZN9benchmark8internal12_GLOBAL__N_111RunInThreadEPKNS0_9Benchmark8InstanceEmiPNS0_13ThreadManagerE+0x16d>
    e430:	48 89 ee             	mov    %rbp,%rsi
    e433:	4c 89 e7             	mov    %r12,%rdi
    e436:	ff d2                	callq  *%rdx
    e438:	e9 0e fd ff ff       	jmpq   e14b <_ZN9benchmark8internal12_GLOBAL__N_111RunInThreadEPKNS0_9Benchmark8InstanceEmiPNS0_13ThreadManagerE+0xfb>
    e43d:	0f 1f 00             	nopl   (%rax)
    e440:	48 89 ee             	mov    %rbp,%rsi
    e443:	4c 89 e7             	mov    %r12,%rdi
    e446:	ff d2                	callq  *%rdx
    e448:	49 8b 04 24          	mov    (%r12),%rax
    e44c:	e9 c5 fc ff ff       	jmpq   e116 <_ZN9benchmark8internal12_GLOBAL__N_111RunInThreadEPKNS0_9Benchmark8InstanceEmiPNS0_13ThreadManagerE+0xc6>
    e451:	0f 1f 80 00 00 00 00 	nopl   0x0(%rax)
    e458:	4c 8d a3 40 01 00 00 	lea    0x140(%rbx),%r12
    e45f:	4c 89 e7             	mov    %r12,%rdi
    e462:	e8 89 d7 ff ff       	callq  bbf0 <pthread_mutex_lock@plt>
    e467:	85 c0                	test   %eax,%eax
    e469:	0f 85 a9 00 00 00    	jne    e518 <_ZN9benchmark8internal12_GLOBAL__N_111RunInThreadEPKNS0_9Benchmark8InstanceEmiPNS0_13ThreadManagerE+0x4c8>
    e46f:	48 8d bb 68 01 00 00 	lea    0x168(%rbx),%rdi
    e476:	e8 45 d8 ff ff       	callq  bcc0 <_ZNSt18condition_variable10notify_allEv@plt>
    e47b:	4c 89 e7             	mov    %r12,%rdi
    e47e:	e8 2d d4 ff ff       	callq  b8b0 <pthread_mutex_unlock@plt>
    e483:	e9 06 fe ff ff       	jmpq   e28e <_ZN9benchmark8internal12_GLOBAL__N_111RunInThreadEPKNS0_9Benchmark8InstanceEmiPNS0_13ThreadManagerE+0x23e>
    e488:	0f 1f 84 00 00 00 00 	nopl   0x0(%rax,%rax,1)
    e48f:	00 
    e490:	e8 1b d4 ff ff       	callq  b8b0 <pthread_mutex_unlock@plt>
    e495:	4c 8d ab d8 00 00 00 	lea    0xd8(%rbx),%r13
    e49c:	e9 aa fd ff ff       	jmpq   e24b <_ZN9benchmark8internal12_GLOBAL__N_111RunInThreadEPKNS0_9Benchmark8InstanceEmiPNS0_13ThreadManagerE+0x1fb>
    e4a1:	0f 1f 80 00 00 00 00 	nopl   0x0(%rax)
    e4a8:	48 89 ee             	mov    %rbp,%rsi
    e4ab:	4c 89 e7             	mov    %r12,%rdi
    e4ae:	ff d0                	callq  *%rax
    e4b0:	e9 96 fc ff ff       	jmpq   e14b <_ZN9benchmark8internal12_GLOBAL__N_111RunInThreadEPKNS0_9Benchmark8InstanceEmiPNS0_13ThreadManagerE+0xfb>
    e4b5:	48 8d bb 00 01 00 00 	lea    0x100(%rbx),%rdi
    e4bc:	e8 ff d7 ff ff       	callq  bcc0 <_ZNSt18condition_variable10notify_allEv@plt>
    e4c1:	f0 83 ab d0 00 00 00 	lock subl $0x1,0xd0(%rbx)
    e4c8:	01 
    e4c9:	0f 85 bf fd ff ff    	jne    e28e <_ZN9benchmark8internal12_GLOBAL__N_111RunInThreadEPKNS0_9Benchmark8InstanceEmiPNS0_13ThreadManagerE+0x23e>
    e4cf:	e9 85 fe ff ff       	jmpq   e359 <_ZN9benchmark8internal12_GLOBAL__N_111RunInThreadEPKNS0_9Benchmark8InstanceEmiPNS0_13ThreadManagerE+0x309>
    e4d4:	89 c7                	mov    %eax,%edi
    e4d6:	e8 65 d3 ff ff       	callq  b840 <_ZSt20__throw_system_errori@plt>
    e4db:	48 89 c3             	mov    %rax,%rbx
    e4de:	48 89 ef             	mov    %rbp,%rdi
    e4e1:	e8 2a 3d 00 00       	callq  12210 <_ZN9benchmark5StateD1Ev>
    e4e6:	48 89 df             	mov    %rbx,%rdi
    e4e9:	e8 32 d8 ff ff       	callq  bd20 <_Unwind_Resume@plt>
    e4ee:	e8 4d d5 ff ff       	callq  ba40 <__stack_chk_fail@plt>
    e4f3:	bf 01 00 00 00       	mov    $0x1,%edi
    e4f8:	e8 43 d3 ff ff       	callq  b840 <_ZSt20__throw_system_errori@plt>
    e4fd:	89 c7                	mov    %eax,%edi
    e4ff:	e8 3c d3 ff ff       	callq  b840 <_ZSt20__throw_system_errori@plt>
    e504:	80 7c 24 08 00       	cmpb   $0x0,0x8(%rsp)
    e509:	48 89 c3             	mov    %rax,%rbx
    e50c:	74 d0                	je     e4de <_ZN9benchmark8internal12_GLOBAL__N_111RunInThreadEPKNS0_9Benchmark8InstanceEmiPNS0_13ThreadManagerE+0x48e>
    e50e:	48 89 e7             	mov    %rsp,%rdi
    e511:	e8 4a 3e 00 00       	callq  12360 <_ZNSt11unique_lockISt5mutexE6unlockEv>
    e516:	eb c6                	jmp    e4de <_ZN9benchmark8internal12_GLOBAL__N_111RunInThreadEPKNS0_9Benchmark8InstanceEmiPNS0_13ThreadManagerE+0x48e>
    e518:	89 c7                	mov    %eax,%edi
    e51a:	e8 21 d3 ff ff       	callq  b840 <_ZSt20__throw_system_errori@plt>
    e51f:	90                   	nop

000000000000e520 <_ZN9benchmark22RunSpecifiedBenchmarksEPNS_17BenchmarkReporterES1_>:
    e520:	55                   	push   %rbp
    e521:	48 89 e5             	mov    %rsp,%rbp
    e524:	41 57                	push   %r15
    e526:	41 56                	push   %r14
    e528:	41 55                	push   %r13
    e52a:	41 54                	push   %r12
    e52c:	53                   	push   %rbx
    e52d:	48 81 ec 78 06 00 00 	sub    $0x678,%rsp
    e534:	48 8b 1d 0d 18 24 00 	mov    0x24180d(%rip),%rbx        # 24fd48 <_Z22FLAGS_benchmark_filterB5cxx11+0x8>
    e53b:	48 89 b5 90 f9 ff ff 	mov    %rsi,-0x670(%rbp)
    e542:	64 48 8b 04 25 28 00 	mov    %fs:0x28,%rax
    e549:	00 00 
    e54b:	48 89 45 c8          	mov    %rax,-0x38(%rbp)
    e54f:	31 c0                	xor    %eax,%eax
    e551:	48 8d 85 f0 fb ff ff 	lea    -0x410(%rbp),%rax
    e558:	48 89 bd 98 f9 ff ff 	mov    %rdi,-0x668(%rbp)
    e55f:	48 89 85 b0 f9 ff ff 	mov    %rax,-0x650(%rbp)
    e566:	48 83 c0 10          	add    $0x10,%rax
    e56a:	48 89 85 f0 fb ff ff 	mov    %rax,-0x410(%rbp)
    e571:	48 8b 05 c8 17 24 00 	mov    0x2417c8(%rip),%rax        # 24fd40 <_Z22FLAGS_benchmark_filterB5cxx11>
    e578:	48 89 c6             	mov    %rax,%rsi
    e57b:	49 89 c7             	mov    %rax,%r15
    e57e:	48 01 de             	add    %rbx,%rsi
    e581:	74 09                	je     e58c <_ZN9benchmark22RunSpecifiedBenchmarksEPNS_17BenchmarkReporterES1_+0x6c>
    e583:	48 85 c0             	test   %rax,%rax
    e586:	0f 84 91 33 00 00    	je     1191d <_ZN9benchmark22RunSpecifiedBenchmarksEPNS_17BenchmarkReporterES1_+0x33fd>
    e58c:	48 83 fb 0f          	cmp    $0xf,%rbx
    e590:	48 89 9d 60 fb ff ff 	mov    %rbx,-0x4a0(%rbp)
    e597:	0f 87 d6 04 00 00    	ja     ea73 <_ZN9benchmark22RunSpecifiedBenchmarksEPNS_17BenchmarkReporterES1_+0x553>
    e59d:	48 83 fb 01          	cmp    $0x1,%rbx
    e5a1:	0f 85 b6 02 00 00    	jne    e85d <_ZN9benchmark22RunSpecifiedBenchmarksEPNS_17BenchmarkReporterES1_+0x33d>
    e5a7:	41 0f b6 07          	movzbl (%r15),%eax
    e5ab:	88 85 00 fc ff ff    	mov    %al,-0x400(%rbp)
    e5b1:	48 8b 85 b0 f9 ff ff 	mov    -0x650(%rbp),%rax
    e5b8:	48 83 c0 10          	add    $0x10,%rax
    e5bc:	48 89 9d f8 fb ff ff 	mov    %rbx,-0x408(%rbp)
    e5c3:	c6 04 18 00          	movb   $0x0,(%rax,%rbx,1)
    e5c7:	48 8b 95 f8 fb ff ff 	mov    -0x408(%rbp),%rdx
    e5ce:	48 85 d2             	test   %rdx,%rdx
    e5d1:	74 1e                	je     e5f1 <_ZN9benchmark22RunSpecifiedBenchmarksEPNS_17BenchmarkReporterES1_+0xd1>
    e5d3:	48 8b bd b0 f9 ff ff 	mov    -0x650(%rbp),%rdi
    e5da:	48 8d 35 ba 58 03 00 	lea    0x358ba(%rip),%rsi        # 43e9b <_ZTSFvPKvRKN8dyntrace6tracer4regsEE+0x12b>
    e5e1:	e8 6a d0 ff ff       	callq  b650 <_ZNKSt7__cxx1112basic_stringIcSt11char_traitsIcESaIcEE7compareEPKc@plt>
    e5e6:	85 c0                	test   %eax,%eax
    e5e8:	75 22                	jne    e60c <_ZN9benchmark22RunSpecifiedBenchmarksEPNS_17BenchmarkReporterES1_+0xec>
    e5ea:	48 8b 95 f8 fb ff ff 	mov    -0x408(%rbp),%rdx
    e5f1:	48 8b bd b0 f9 ff ff 	mov    -0x650(%rbp),%rdi
    e5f8:	48 8d 0d aa 71 03 00 	lea    0x371aa(%rip),%rcx        # 457a9 <._91+0xa9>
    e5ff:	41 b8 01 00 00 00    	mov    $0x1,%r8d
    e605:	31 f6                	xor    %esi,%esi
    e607:	e8 e4 d2 ff ff       	callq  b8f0 <_ZNSt7__cxx1112basic_stringIcSt11char_traitsIcESaIcEE10_M_replaceEmmPKcm@plt>
    e60c:	48 8d 9d c0 fd ff ff 	lea    -0x240(%rbp),%rbx
    e613:	48 8d bb f8 00 00 00 	lea    0xf8(%rbx),%rdi
    e61a:	48 89 9d a0 f9 ff ff 	mov    %rbx,-0x660(%rbp)
    e621:	e8 3a d0 ff ff       	callq  b660 <_ZNSt8ios_baseC2Ev@plt>
    e626:	48 8d 05 6b ff 23 00 	lea    0x23ff6b(%rip),%rax        # 24e598 <_ZTVSt9basic_iosIcSt11char_traitsIcEE@@GLIBCXX_3.4+0x10>
    e62d:	66 0f ef c0          	pxor   %xmm0,%xmm0
    e631:	c6 45 98 00          	movb   $0x0,-0x68(%rbp)
    e635:	48 c7 45 90 00 00 00 	movq   $0x0,-0x70(%rbp)
    e63c:	00 
    e63d:	31 f6                	xor    %esi,%esi
    e63f:	48 89 85 b8 fe ff ff 	mov    %rax,-0x148(%rbp)
    e646:	48 8b 05 ab 00 24 00 	mov    0x2400ab(%rip),%rax        # 24e6f8 <_ZTTSt14basic_ofstreamIcSt11char_traitsIcEE@@GLIBCXX_3.4+0x8>
    e64d:	0f 29 45 a0          	movaps %xmm0,-0x60(%rbp)
    e651:	c6 45 99 00          	movb   $0x0,-0x67(%rbp)
    e655:	0f 29 45 b0          	movaps %xmm0,-0x50(%rbp)
    e659:	48 03 58 e8          	add    -0x18(%rax),%rbx
    e65d:	48 89 85 c0 fd ff ff 	mov    %rax,-0x240(%rbp)
    e664:	48 8b 05 95 00 24 00 	mov    0x240095(%rip),%rax        # 24e700 <_ZTTSt14basic_ofstreamIcSt11char_traitsIcEE@@GLIBCXX_3.4+0x10>
    e66b:	48 89 df             	mov    %rbx,%rdi
    e66e:	48 89 03             	mov    %rax,(%rbx)
    e671:	e8 ca d4 ff ff       	callq  bb40 <_ZNSt9basic_iosIcSt11char_traitsIcEE4initEPSt15basic_streambufIcS1_E@plt>
    e676:	48 8b 9d a0 f9 ff ff 	mov    -0x660(%rbp),%rbx
    e67d:	48 8d 05 8c 02 24 00 	lea    0x24028c(%rip),%rax        # 24e910 <_ZTVSt14basic_ofstreamIcSt11char_traitsIcEE@@GLIBCXX_3.4+0x18>
    e684:	48 89 85 c0 fd ff ff 	mov    %rax,-0x240(%rbp)
    e68b:	48 83 c0 28          	add    $0x28,%rax
    e68f:	48 8d 7b 08          	lea    0x8(%rbx),%rdi
    e693:	48 89 85 b8 fe ff ff 	mov    %rax,-0x148(%rbp)
    e69a:	e8 61 d3 ff ff       	callq  ba00 <_ZNSt13basic_filebufIcSt11char_traitsIcEEC1Ev@plt>
    e69f:	48 8d 73 08          	lea    0x8(%rbx),%rsi
    e6a3:	48 8d bb f8 00 00 00 	lea    0xf8(%rbx),%rdi
    e6aa:	e8 91 d4 ff ff       	callq  bb40 <_ZNSt9basic_iosIcSt11char_traitsIcEE4initEPSt15basic_streambufIcS1_E@plt>
    e6af:	48 83 bd 98 f9 ff ff 	cmpq   $0x0,-0x668(%rbp)
    e6b6:	00 
    e6b7:	48 c7 85 88 f9 ff ff 	movq   $0x0,-0x678(%rbp)
    e6be:	00 00 00 00 
    e6c2:	0f 84 1a 0d 00 00    	je     f3e2 <_ZN9benchmark22RunSpecifiedBenchmarksEPNS_17BenchmarkReporterES1_+0xec2>
    e6c8:	48 8b 85 98 f9 ff ff 	mov    -0x668(%rbp),%rax
    e6cf:	48 83 3d f1 15 24 00 	cmpq   $0x0,0x2415f1(%rip)        # 24fcc8 <_Z19FLAGS_benchmark_outB5cxx11+0x8>
    e6d6:	00 
    e6d7:	48 8b 50 08          	mov    0x8(%rax),%rdx
    e6db:	4c 8b 60 10          	mov    0x10(%rax),%r12
    e6df:	49 89 d7             	mov    %rdx,%r15
    e6e2:	0f 85 05 03 00 00    	jne    e9ed <_ZN9benchmark22RunSpecifiedBenchmarksEPNS_17BenchmarkReporterES1_+0x4cd>
    e6e8:	48 83 bd 90 f9 ff ff 	cmpq   $0x0,-0x670(%rbp)
    e6ef:	00 
    e6f0:	0f 85 01 32 00 00    	jne    118f7 <_ZN9benchmark22RunSpecifiedBenchmarksEPNS_17BenchmarkReporterES1_+0x33d7>
    e6f6:	48 c7 85 80 f9 ff ff 	movq   $0x0,-0x680(%rbp)
    e6fd:	00 00 00 00 
    e701:	48 8d 85 b0 fa ff ff 	lea    -0x550(%rbp),%rax
    e708:	66 0f ef c0          	pxor   %xmm0,%xmm0
    e70c:	48 8b bd b0 f9 ff ff 	mov    -0x650(%rbp),%rdi
    e713:	4c 89 e2             	mov    %r12,%rdx
    e716:	48 c7 85 c0 fa ff ff 	movq   $0x0,-0x540(%rbp)
    e71d:	00 00 00 00 
    e721:	48 89 c6             	mov    %rax,%rsi
    e724:	48 89 85 78 f9 ff ff 	mov    %rax,-0x688(%rbp)
    e72b:	0f 29 85 b0 fa ff ff 	movaps %xmm0,-0x550(%rbp)
    e732:	e8 19 b2 00 00       	callq  19950 <_ZN9benchmark8internal22FindBenchmarksInternalERKNSt7__cxx1112basic_stringIcSt11char_traitsIcESaIcEEEPSt6vectorINS0_9Benchmark8InstanceESaISB_EEPSo>
    e737:	84 c0                	test   %al,%al
    e739:	48 8b 9d b8 fa ff ff 	mov    -0x548(%rbp),%rbx
    e740:	48 8b 95 b0 fa ff ff 	mov    -0x550(%rbp),%rdx
    e747:	48 89 df             	mov    %rbx,%rdi
    e74a:	48 89 d1             	mov    %rdx,%rcx
    e74d:	0f 84 6b 03 00 00    	je     eabe <_ZN9benchmark22RunSpecifiedBenchmarksEPNS_17BenchmarkReporterES1_+0x59e>
    e753:	48 39 da             	cmp    %rbx,%rdx
    e756:	0f 84 6f 0f 00 00    	je     f6cb <_ZN9benchmark22RunSpecifiedBenchmarksEPNS_17BenchmarkReporterES1_+0x11ab>
    e75c:	80 3d fd 15 24 00 00 	cmpb   $0x0,0x2415fd(%rip)        # 24fd60 <FLAGS_benchmark_list_tests>
    e763:	0f 84 5d 03 00 00    	je     eac6 <_ZN9benchmark22RunSpecifiedBenchmarksEPNS_17BenchmarkReporterES1_+0x5a6>
    e769:	4c 8d 2d 0a 71 03 00 	lea    0x3710a(%rip),%r13        # 4587a <_ZTSN9benchmark15ConsoleReporterE+0x3a>
    e770:	49 89 d4             	mov    %rdx,%r12
    e773:	0f 1f 44 00 00       	nopl   0x0(%rax,%rax,1)
    e778:	49 8b 54 24 08       	mov    0x8(%r12),%rdx
    e77d:	49 8b 34 24          	mov    (%r12),%rsi
    e781:	4c 89 ff             	mov    %r15,%rdi
    e784:	e8 d7 d2 ff ff       	callq  ba60 <_ZSt16__ostream_insertIcSt11char_traitsIcEERSt13basic_ostreamIT_T0_ES6_PKS3_l@plt>
    e789:	ba 01 00 00 00       	mov    $0x1,%edx
    e78e:	4c 89 ee             	mov    %r13,%rsi
    e791:	48 89 c7             	mov    %rax,%rdi
    e794:	e8 c7 d2 ff ff       	callq  ba60 <_ZSt16__ostream_insertIcSt11char_traitsIcEERSt13basic_ostreamIT_T0_ES6_PKS3_l@plt>
    e799:	49 81 c4 b8 00 00 00 	add    $0xb8,%r12
    e7a0:	4c 39 e3             	cmp    %r12,%rbx
    e7a3:	75 d3                	jne    e778 <_ZN9benchmark22RunSpecifiedBenchmarksEPNS_17BenchmarkReporterES1_+0x258>
    e7a5:	48 8b bd b8 fa ff ff 	mov    -0x548(%rbp),%rdi
    e7ac:	48 8b 8d b0 fa ff ff 	mov    -0x550(%rbp),%rcx
    e7b3:	48 b8 a7 37 bd e9 4d 	movabs $0xd37a6f4de9bd37a7,%rax
    e7ba:	6f 7a d3 
    e7bd:	49 89 fc             	mov    %rdi,%r12
    e7c0:	49 29 cc             	sub    %rcx,%r12
    e7c3:	49 c1 fc 03          	sar    $0x3,%r12
    e7c7:	4c 0f af e0          	imul   %rax,%r12
    e7cb:	48 39 f9             	cmp    %rdi,%rcx
    e7ce:	0f 84 f4 00 00 00    	je     e8c8 <_ZN9benchmark22RunSpecifiedBenchmarksEPNS_17BenchmarkReporterES1_+0x3a8>
    e7d4:	48 8d 81 b8 00 00 00 	lea    0xb8(%rcx),%rax
    e7db:	48 ba ff ff ff ff ff 	movabs $0x1fffffffffffffff,%rdx
    e7e2:	ff ff 1f 
    e7e5:	48 8d 59 60          	lea    0x60(%rcx),%rbx
    e7e9:	48 29 c7             	sub    %rax,%rdi
    e7ec:	48 89 f8             	mov    %rdi,%rax
    e7ef:	48 bf a7 37 bd e9 4d 	movabs $0x137a6f4de9bd37a7,%rdi
    e7f6:	6f 7a 13 
    e7f9:	48 c1 e8 03          	shr    $0x3,%rax
    e7fd:	48 0f af c7          	imul   %rdi,%rax
    e801:	48 21 d0             	and    %rdx,%rax
    e804:	48 69 c0 b8 00 00 00 	imul   $0xb8,%rax,%rax
    e80b:	48 8d 84 01 18 01 00 	lea    0x118(%rcx,%rax,1),%rax
    e812:	00 
    e813:	49 89 c7             	mov    %rax,%r15
    e816:	66 2e 0f 1f 84 00 00 	nopw   %cs:0x0(%rax,%rax,1)
    e81d:	00 00 00 
    e820:	4c 8b 6b 10          	mov    0x10(%rbx),%r13
    e824:	4d 85 ed             	test   %r13,%r13
    e827:	74 64                	je     e88d <_ZN9benchmark22RunSpecifiedBenchmarksEPNS_17BenchmarkReporterES1_+0x36d>
    e829:	49 8b 75 18          	mov    0x18(%r13),%rsi
    e82d:	48 89 df             	mov    %rbx,%rdi
    e830:	e8 5b 34 00 00       	callq  11c90 <_ZNSt8_Rb_treeINSt7__cxx1112basic_stringIcSt11char_traitsIcESaIcEEESt4pairIKS5_N9benchmark7CounterEESt10_Select1stISA_ESt4lessIS5_ESaISA_EE8_M_eraseEPSt13_Rb_tree_nodeISA_E>
    e835:	49 8b 7d 20          	mov    0x20(%r13),%rdi
    e839:	49 8d 45 30          	lea    0x30(%r13),%rax
    e83d:	4d 8b 75 10          	mov    0x10(%r13),%r14
    e841:	48 39 c7             	cmp    %rax,%rdi
    e844:	74 3a                	je     e880 <_ZN9benchmark22RunSpecifiedBenchmarksEPNS_17BenchmarkReporterES1_+0x360>
    e846:	e8 55 d1 ff ff       	callq  b9a0 <_ZdlPv@plt>
    e84b:	4c 89 ef             	mov    %r13,%rdi
    e84e:	e8 4d d1 ff ff       	callq  b9a0 <_ZdlPv@plt>
    e853:	4d 85 f6             	test   %r14,%r14
    e856:	74 35                	je     e88d <_ZN9benchmark22RunSpecifiedBenchmarksEPNS_17BenchmarkReporterES1_+0x36d>
    e858:	4d 89 f5             	mov    %r14,%r13
    e85b:	eb cc                	jmp    e829 <_ZN9benchmark22RunSpecifiedBenchmarksEPNS_17BenchmarkReporterES1_+0x309>
    e85d:	48 8b 85 b0 f9 ff ff 	mov    -0x650(%rbp),%rax
    e864:	48 83 c0 10          	add    $0x10,%rax
    e868:	48 85 db             	test   %rbx,%rbx
    e86b:	0f 84 4b fd ff ff    	je     e5bc <_ZN9benchmark22RunSpecifiedBenchmarksEPNS_17BenchmarkReporterES1_+0x9c>
    e871:	e9 27 02 00 00       	jmpq   ea9d <_ZN9benchmark22RunSpecifiedBenchmarksEPNS_17BenchmarkReporterES1_+0x57d>
    e876:	66 2e 0f 1f 84 00 00 	nopw   %cs:0x0(%rax,%rax,1)
    e87d:	00 00 00 
    e880:	4c 89 ef             	mov    %r13,%rdi
    e883:	e8 18 d1 ff ff       	callq  b9a0 <_ZdlPv@plt>
    e888:	4d 85 f6             	test   %r14,%r14
    e88b:	75 cb                	jne    e858 <_ZN9benchmark22RunSpecifiedBenchmarksEPNS_17BenchmarkReporterES1_+0x338>
    e88d:	48 8b 7b d0          	mov    -0x30(%rbx),%rdi
    e891:	48 85 ff             	test   %rdi,%rdi
    e894:	74 05                	je     e89b <_ZN9benchmark22RunSpecifiedBenchmarksEPNS_17BenchmarkReporterES1_+0x37b>
    e896:	e8 05 d1 ff ff       	callq  b9a0 <_ZdlPv@plt>
    e89b:	48 8b 7b a0          	mov    -0x60(%rbx),%rdi
    e89f:	48 8d 43 b0          	lea    -0x50(%rbx),%rax
    e8a3:	48 39 c7             	cmp    %rax,%rdi
    e8a6:	0f 84 2c 01 00 00    	je     e9d8 <_ZN9benchmark22RunSpecifiedBenchmarksEPNS_17BenchmarkReporterES1_+0x4b8>
    e8ac:	48 81 c3 b8 00 00 00 	add    $0xb8,%rbx
    e8b3:	e8 e8 d0 ff ff       	callq  b9a0 <_ZdlPv@plt>
    e8b8:	4c 39 fb             	cmp    %r15,%rbx
    e8bb:	0f 85 5f ff ff ff    	jne    e820 <_ZN9benchmark22RunSpecifiedBenchmarksEPNS_17BenchmarkReporterES1_+0x300>
    e8c1:	48 8b bd b0 fa ff ff 	mov    -0x550(%rbp),%rdi
    e8c8:	48 85 ff             	test   %rdi,%rdi
    e8cb:	74 05                	je     e8d2 <_ZN9benchmark22RunSpecifiedBenchmarksEPNS_17BenchmarkReporterES1_+0x3b2>
    e8cd:	e8 ce d0 ff ff       	callq  b9a0 <_ZdlPv@plt>
    e8d2:	48 8b bd 80 f9 ff ff 	mov    -0x680(%rbp),%rdi
    e8d9:	48 85 ff             	test   %rdi,%rdi
    e8dc:	74 06                	je     e8e4 <_ZN9benchmark22RunSpecifiedBenchmarksEPNS_17BenchmarkReporterES1_+0x3c4>
    e8de:	48 8b 07             	mov    (%rdi),%rax
    e8e1:	ff 50 20             	callq  *0x20(%rax)
    e8e4:	48 8b bd 88 f9 ff ff 	mov    -0x678(%rbp),%rdi
    e8eb:	48 85 ff             	test   %rdi,%rdi
    e8ee:	74 06                	je     e8f6 <_ZN9benchmark22RunSpecifiedBenchmarksEPNS_17BenchmarkReporterES1_+0x3d6>
    e8f0:	48 8b 07             	mov    (%rdi),%rax
    e8f3:	ff 50 20             	callq  *0x20(%rax)
    e8f6:	48 8d 05 3b 00 24 00 	lea    0x24003b(%rip),%rax        # 24e938 <_ZTVSt14basic_ofstreamIcSt11char_traitsIcEE@@GLIBCXX_3.4+0x40>
    e8fd:	48 8b 9d a0 f9 ff ff 	mov    -0x660(%rbp),%rbx
    e904:	f3 0f 7e 05 fc 01 24 	movq   0x2401fc(%rip),%xmm0        # 24eb08 <_ZTVSt14basic_ofstreamIcSt11char_traitsIcEE@@GLIBCXX_3.4+0x210>
    e90b:	00 
    e90c:	48 89 85 b8 fe ff ff 	mov    %rax,-0x148(%rbp)
    e913:	48 8d 05 6e ff 23 00 	lea    0x23ff6e(%rip),%rax        # 24e888 <_ZTVSt13basic_filebufIcSt11char_traitsIcEE@@GLIBCXX_3.4+0x10>
    e91a:	48 8d 7b 08          	lea    0x8(%rbx),%rdi
    e91e:	48 89 85 20 fa ff ff 	mov    %rax,-0x5e0(%rbp)
    e925:	0f 16 85 20 fa ff ff 	movhps -0x5e0(%rbp),%xmm0
    e92c:	0f 29 85 c0 fd ff ff 	movaps %xmm0,-0x240(%rbp)
    e933:	e8 c8 cc ff ff       	callq  b600 <_ZNSt13basic_filebufIcSt11char_traitsIcEE5closeEv@plt>
    e938:	48 8d 7b 70          	lea    0x70(%rbx),%rdi
    e93c:	e8 3f d4 ff ff       	callq  bd80 <_ZNSt12__basic_fileIcED1Ev@plt>
    e941:	48 8d 05 18 fd 23 00 	lea    0x23fd18(%rip),%rax        # 24e660 <_ZTVSt15basic_streambufIcSt11char_traitsIcEE@@GLIBCXX_3.4+0x10>
    e948:	48 8d 7b 40          	lea    0x40(%rbx),%rdi
    e94c:	48 89 85 c8 fd ff ff 	mov    %rax,-0x238(%rbp)
    e953:	e8 38 d2 ff ff       	callq  bb90 <_ZNSt6localeD1Ev@plt>
    e958:	48 8b 05 99 fd 23 00 	mov    0x23fd99(%rip),%rax        # 24e6f8 <_ZTTSt14basic_ofstreamIcSt11char_traitsIcEE@@GLIBCXX_3.4+0x8>
    e95f:	48 8b 35 9a fd 23 00 	mov    0x23fd9a(%rip),%rsi        # 24e700 <_ZTTSt14basic_ofstreamIcSt11char_traitsIcEE@@GLIBCXX_3.4+0x10>
    e966:	48 8d bb f8 00 00 00 	lea    0xf8(%rbx),%rdi
    e96d:	48 89 85 c0 fd ff ff 	mov    %rax,-0x240(%rbp)
    e974:	48 8b 40 e8          	mov    -0x18(%rax),%rax
    e978:	48 89 b4 05 c0 fd ff 	mov    %rsi,-0x240(%rbp,%rax,1)
    e97f:	ff 
    e980:	48 8d 05 11 fc 23 00 	lea    0x23fc11(%rip),%rax        # 24e598 <_ZTVSt9basic_iosIcSt11char_traitsIcEE@@GLIBCXX_3.4+0x10>
    e987:	48 89 85 b8 fe ff ff 	mov    %rax,-0x148(%rbp)
    e98e:	e8 1d cd ff ff       	callq  b6b0 <_ZNSt8ios_baseD2Ev@plt>
    e993:	48 8b 85 b0 f9 ff ff 	mov    -0x650(%rbp),%rax
    e99a:	48 8b bd f0 fb ff ff 	mov    -0x410(%rbp),%rdi
    e9a1:	48 83 c0 10          	add    $0x10,%rax
    e9a5:	48 39 c7             	cmp    %rax,%rdi
    e9a8:	74 05                	je     e9af <_ZN9benchmark22RunSpecifiedBenchmarksEPNS_17BenchmarkReporterES1_+0x48f>
    e9aa:	e8 f1 cf ff ff       	callq  b9a0 <_ZdlPv@plt>
    e9af:	48 8b 75 c8          	mov    -0x38(%rbp),%rsi
    e9b3:	64 48 33 34 25 28 00 	xor    %fs:0x28,%rsi
    e9ba:	00 00 
    e9bc:	4c 89 e0             	mov    %r12,%rax
    e9bf:	0f 85 53 2d 00 00    	jne    11718 <_ZN9benchmark22RunSpecifiedBenchmarksEPNS_17BenchmarkReporterES1_+0x31f8>
    e9c5:	48 8d 65 d8          	lea    -0x28(%rbp),%rsp
    e9c9:	5b                   	pop    %rbx
    e9ca:	41 5c                	pop    %r12
    e9cc:	41 5d                	pop    %r13
    e9ce:	41 5e                	pop    %r14
    e9d0:	41 5f                	pop    %r15
    e9d2:	5d                   	pop    %rbp
    e9d3:	c3                   	retq   
    e9d4:	0f 1f 40 00          	nopl   0x0(%rax)
    e9d8:	48 81 c3 b8 00 00 00 	add    $0xb8,%rbx
    e9df:	49 39 df             	cmp    %rbx,%r15
    e9e2:	0f 85 38 fe ff ff    	jne    e820 <_ZN9benchmark22RunSpecifiedBenchmarksEPNS_17BenchmarkReporterES1_+0x300>
    e9e8:	e9 d4 fe ff ff       	jmpq   e8c1 <_ZN9benchmark22RunSpecifiedBenchmarksEPNS_17BenchmarkReporterES1_+0x3a1>
    e9ed:	48 8b 9d a0 f9 ff ff 	mov    -0x660(%rbp),%rbx
    e9f4:	48 8b 35 c5 12 24 00 	mov    0x2412c5(%rip),%rsi        # 24fcc0 <_Z19FLAGS_benchmark_outB5cxx11>
    e9fb:	ba 30 00 00 00       	mov    $0x30,%edx
    ea00:	48 8d 7b 08          	lea    0x8(%rbx),%rdi
    ea04:	e8 37 cf ff ff       	callq  b940 <_ZNSt13basic_filebufIcSt11char_traitsIcEE4openEPKcSt13_Ios_Openmode@plt>
    ea09:	48 8b 95 c0 fd ff ff 	mov    -0x240(%rbp),%rdx
    ea10:	48 03 5a e8          	add    -0x18(%rdx),%rbx
    ea14:	48 85 c0             	test   %rax,%rax
    ea17:	48 89 df             	mov    %rbx,%rdi
    ea1a:	0f 84 9b 0c 00 00    	je     f6bb <_ZN9benchmark22RunSpecifiedBenchmarksEPNS_17BenchmarkReporterES1_+0x119b>
    ea20:	31 f6                	xor    %esi,%esi
    ea22:	e8 89 d2 ff ff       	callq  bcb0 <_ZNSt9basic_iosIcSt11char_traitsIcEE5clearESt12_Ios_Iostate@plt>
    ea27:	48 8b 85 a0 f9 ff ff 	mov    -0x660(%rbp),%rax
    ea2e:	48 8d 78 70          	lea    0x70(%rax),%rdi
    ea32:	e8 d9 cb ff ff       	callq  b610 <_ZNKSt12__basic_fileIcE7is_openEv@plt>
    ea37:	84 c0                	test   %al,%al
    ea39:	0f 84 71 2f 00 00    	je     119b0 <_ZN9benchmark22RunSpecifiedBenchmarksEPNS_17BenchmarkReporterES1_+0x3490>
    ea3f:	48 83 bd 90 f9 ff ff 	cmpq   $0x0,-0x670(%rbp)
    ea46:	00 
    ea47:	48 c7 85 80 f9 ff ff 	movq   $0x0,-0x680(%rbp)
    ea4e:	00 00 00 00 
    ea52:	0f 84 c7 0c 00 00    	je     f71f <_ZN9benchmark22RunSpecifiedBenchmarksEPNS_17BenchmarkReporterES1_+0x11ff>
    ea58:	48 8b 85 90 f9 ff ff 	mov    -0x670(%rbp),%rax
    ea5f:	48 8b 95 a0 f9 ff ff 	mov    -0x660(%rbp),%rdx
    ea66:	48 89 50 08          	mov    %rdx,0x8(%rax)
    ea6a:	48 89 50 10          	mov    %rdx,0x10(%rax)
    ea6e:	e9 8e fc ff ff       	jmpq   e701 <_ZN9benchmark22RunSpecifiedBenchmarksEPNS_17BenchmarkReporterES1_+0x1e1>
    ea73:	48 8b bd b0 f9 ff ff 	mov    -0x650(%rbp),%rdi
    ea7a:	48 8d b5 60 fb ff ff 	lea    -0x4a0(%rbp),%rsi
    ea81:	31 d2                	xor    %edx,%edx
    ea83:	e8 a8 d2 ff ff       	callq  bd30 <_ZNSt7__cxx1112basic_stringIcSt11char_traitsIcESaIcEE9_M_createERmm@plt>
    ea88:	48 8b 95 60 fb ff ff 	mov    -0x4a0(%rbp),%rdx
    ea8f:	48 89 85 f0 fb ff ff 	mov    %rax,-0x410(%rbp)
    ea96:	48 89 95 00 fc ff ff 	mov    %rdx,-0x400(%rbp)
    ea9d:	48 89 da             	mov    %rbx,%rdx
    eaa0:	4c 89 fe             	mov    %r15,%rsi
    eaa3:	48 89 c7             	mov    %rax,%rdi
    eaa6:	e8 55 ce ff ff       	callq  b900 <memcpy@plt>
    eaab:	48 8b 9d 60 fb ff ff 	mov    -0x4a0(%rbp),%rbx
    eab2:	48 8b 85 f0 fb ff ff 	mov    -0x410(%rbp),%rax
    eab9:	e9 fe fa ff ff       	jmpq   e5bc <_ZN9benchmark22RunSpecifiedBenchmarksEPNS_17BenchmarkReporterES1_+0x9c>
    eabe:	45 31 e4             	xor    %r12d,%r12d
    eac1:	e9 05 fd ff ff       	jmpq   e7cb <_ZN9benchmark22RunSpecifiedBenchmarksEPNS_17BenchmarkReporterES1_+0x2ab>
    eac6:	0f b6 05 bb 12 24 00 	movzbl 0x2412bb(%rip),%eax        # 24fd88 <_ZGVZN9benchmark8internal18GetNullLogInstanceEvE3log>
    eacd:	84 c0                	test   %al,%al
    eacf:	0f 84 79 0c 00 00    	je     f74e <_ZN9benchmark22RunSpecifiedBenchmarksEPNS_17BenchmarkReporterES1_+0x122e>
    ead5:	83 3d 9c 09 24 00 01 	cmpl   $0x1,0x24099c(%rip)        # 24f478 <FLAGS_benchmark_repetitions>
    eadc:	41 0f 9f c0          	setg   %r8b
    eae0:	48 39 da             	cmp    %rbx,%rdx
    eae3:	0f 84 28 27 00 00    	je     11211 <_ZN9benchmark22RunSpecifiedBenchmarksEPNS_17BenchmarkReporterES1_+0x2cf1>
    eae9:	48 8d 82 b8 00 00 00 	lea    0xb8(%rdx),%rax
    eaf0:	48 b9 a7 37 bd e9 4d 	movabs $0x137a6f4de9bd37a7,%rcx
    eaf7:	6f 7a 13 
    eafa:	48 8d 72 08          	lea    0x8(%rdx),%rsi
    eafe:	49 bb cd cc cc cc cc 	movabs $0xccccccccccccccd,%r11
    eb05:	cc cc 0c 
    eb08:	48 29 c3             	sub    %rax,%rbx
    eb0b:	48 89 d8             	mov    %rbx,%rax
    eb0e:	48 bb ff ff ff ff ff 	movabs $0x1fffffffffffffff,%rbx
    eb15:	ff ff 1f 
    eb18:	48 c1 e8 03          	shr    $0x3,%rax
    eb1c:	48 0f af c1          	imul   %rcx,%rax
    eb20:	48 21 d8             	and    %rbx,%rax
    eb23:	bb 0a 00 00 00       	mov    $0xa,%ebx
    eb28:	48 69 c0 b8 00 00 00 	imul   $0xb8,%rax,%rax
    eb2f:	4c 8d 94 02 c0 00 00 	lea    0xc0(%rdx,%rax,1),%r10
    eb36:	00 
    eb37:	48 b8 ff ff ff ff ff 	movabs $0x1fffffffffffffff,%rax
    eb3e:	ff ff 1f 
    eb41:	31 d2                	xor    %edx,%edx
    eb43:	49 89 c7             	mov    %rax,%r15
    eb46:	66 2e 0f 1f 84 00 00 	nopw   %cs:0x0(%rax,%rax,1)
    eb4d:	00 00 00 
    eb50:	48 8b 06             	mov    (%rsi),%rax
    eb53:	48 39 c3             	cmp    %rax,%rbx
    eb56:	48 0f 42 d8          	cmovb  %rax,%rbx
    eb5a:	83 be 94 00 00 00 01 	cmpl   $0x1,0x94(%rsi)
    eb61:	0f 9f c0             	setg   %al
    eb64:	41 09 c0             	or     %eax,%r8d
    eb67:	48 8b 86 88 00 00 00 	mov    0x88(%rsi),%rax
    eb6e:	48 8b 38             	mov    (%rax),%rdi
    eb71:	48 8b 48 08          	mov    0x8(%rax),%rcx
    eb75:	48 39 cf             	cmp    %rcx,%rdi
    eb78:	74 39                	je     ebb3 <_ZN9benchmark22RunSpecifiedBenchmarksEPNS_17BenchmarkReporterES1_+0x693>
    eb7a:	4c 8d 4f 28          	lea    0x28(%rdi),%r9
    eb7e:	48 8d 47 08          	lea    0x8(%rdi),%rax
    eb82:	4c 29 c9             	sub    %r9,%rcx
    eb85:	48 c1 e9 03          	shr    $0x3,%rcx
    eb89:	49 0f af cb          	imul   %r11,%rcx
    eb8d:	4c 21 f9             	and    %r15,%rcx
    eb90:	48 8d 0c 89          	lea    (%rcx,%rcx,4),%rcx
    eb94:	48 8d 7c cf 30       	lea    0x30(%rdi,%rcx,8),%rdi
    eb99:	0f 1f 80 00 00 00 00 	nopl   0x0(%rax)
    eba0:	48 8b 08             	mov    (%rax),%rcx
    eba3:	48 39 ca             	cmp    %rcx,%rdx
    eba6:	48 0f 42 d1          	cmovb  %rcx,%rdx
    ebaa:	48 83 c0 28          	add    $0x28,%rax
    ebae:	48 39 c7             	cmp    %rax,%rdi
    ebb1:	75 ed                	jne    eba0 <_ZN9benchmark22RunSpecifiedBenchmarksEPNS_17BenchmarkReporterES1_+0x680>
    ebb3:	48 81 c6 b8 00 00 00 	add    $0xb8,%rsi
    ebba:	49 39 f2             	cmp    %rsi,%r10
    ebbd:	75 91                	jne    eb50 <_ZN9benchmark22RunSpecifiedBenchmarksEPNS_17BenchmarkReporterES1_+0x630>
    ebbf:	4c 8d bd 90 fa ff ff 	lea    -0x570(%rbp),%r15
    ebc6:	48 8d 44 1a 01       	lea    0x1(%rdx,%rbx,1),%rax
    ebcb:	45 84 c0             	test   %r8b,%r8b
    ebce:	4c 89 ff             	mov    %r15,%rdi
    ebd1:	48 0f 45 d8          	cmovne %rax,%rbx
    ebd5:	e8 56 8f 02 00       	callq  37b30 <_ZN9benchmark17BenchmarkReporter7ContextC1Ev>
    ebda:	48 8b bd 98 f9 ff ff 	mov    -0x668(%rbp),%rdi
    ebe1:	66 0f ef c0          	pxor   %xmm0,%xmm0
    ebe5:	48 89 9d 98 fa ff ff 	mov    %rbx,-0x568(%rbp)
    ebec:	48 c7 85 e0 fa ff ff 	movq   $0x0,-0x520(%rbp)
    ebf3:	00 00 00 00 
    ebf7:	4c 89 fe             	mov    %r15,%rsi
    ebfa:	48 8b 07             	mov    (%rdi),%rax
    ebfd:	0f 29 85 d0 fa ff ff 	movaps %xmm0,-0x530(%rbp)
    ec04:	ff 10                	callq  *(%rax)
    ec06:	84 c0                	test   %al,%al
    ec08:	0f 84 f3 08 00 00    	je     f501 <_ZN9benchmark22RunSpecifiedBenchmarksEPNS_17BenchmarkReporterES1_+0xfe1>
    ec0e:	48 83 bd 90 f9 ff ff 	cmpq   $0x0,-0x670(%rbp)
    ec15:	00 
    ec16:	74 17                	je     ec2f <_ZN9benchmark22RunSpecifiedBenchmarksEPNS_17BenchmarkReporterES1_+0x70f>
    ec18:	48 8b bd 90 f9 ff ff 	mov    -0x670(%rbp),%rdi
    ec1f:	4c 89 fe             	mov    %r15,%rsi
    ec22:	48 8b 07             	mov    (%rdi),%rax
    ec25:	ff 10                	callq  *(%rax)
    ec27:	84 c0                	test   %al,%al
    ec29:	0f 84 d2 08 00 00    	je     f501 <_ZN9benchmark22RunSpecifiedBenchmarksEPNS_17BenchmarkReporterES1_+0xfe1>
    ec2f:	48 8b 85 98 f9 ff ff 	mov    -0x668(%rbp),%rax
    ec36:	48 8b 78 08          	mov    0x8(%rax),%rdi
    ec3a:	e8 21 cc ff ff       	callq  b860 <_ZNSo5flushEv@plt>
    ec3f:	48 8b 85 98 f9 ff ff 	mov    -0x668(%rbp),%rax
    ec46:	48 8b 78 10          	mov    0x10(%rax),%rdi
    ec4a:	e8 11 cc ff ff       	callq  b860 <_ZNSo5flushEv@plt>
    ec4f:	48 83 bd 90 f9 ff ff 	cmpq   $0x0,-0x670(%rbp)
    ec56:	00 
    ec57:	74 19                	je     ec72 <_ZN9benchmark22RunSpecifiedBenchmarksEPNS_17BenchmarkReporterES1_+0x752>
    ec59:	48 8b 9d 90 f9 ff ff 	mov    -0x670(%rbp),%rbx
    ec60:	48 8b 7b 08          	mov    0x8(%rbx),%rdi
    ec64:	e8 f7 cb ff ff       	callq  b860 <_ZNSo5flushEv@plt>
    ec69:	48 8b 7b 10          	mov    0x10(%rbx),%rdi
    ec6d:	e8 ee cb ff ff       	callq  b860 <_ZNSo5flushEv@plt>
    ec72:	48 8b 85 b0 fa ff ff 	mov    -0x550(%rbp),%rax
    ec79:	48 8b b5 b8 fa ff ff 	mov    -0x548(%rbp),%rsi
    ec80:	48 8d 50 30          	lea    0x30(%rax),%rdx
    ec84:	48 39 f0             	cmp    %rsi,%rax
    ec87:	48 89 b5 68 f9 ff ff 	mov    %rsi,-0x698(%rbp)
    ec8e:	48 89 85 18 fa ff ff 	mov    %rax,-0x5e8(%rbp)
    ec95:	48 89 95 a8 f9 ff ff 	mov    %rdx,-0x658(%rbp)
    ec9c:	0f 84 5f 08 00 00    	je     f501 <_ZN9benchmark22RunSpecifiedBenchmarksEPNS_17BenchmarkReporterES1_+0xfe1>
    eca2:	48 8b b5 18 fa ff ff 	mov    -0x5e8(%rbp),%rsi
    eca9:	b8 01 00 00 00       	mov    $0x1,%eax
    ecae:	48 c7 85 00 fb ff ff 	movq   $0x0,-0x500(%rbp)
    ecb5:	00 00 00 00 
    ecb9:	66 0f ef c0          	pxor   %xmm0,%xmm0
    ecbd:	48 8b 96 a8 00 00 00 	mov    0xa8(%rsi),%rdx
    ecc4:	0f 29 85 f0 fa ff ff 	movaps %xmm0,-0x510(%rbp)
    eccb:	48 85 d2             	test   %rdx,%rdx
    ecce:	48 0f 45 c2          	cmovne %rdx,%rax
    ecd2:	48 89 85 10 fa ff ff 	mov    %rax,-0x5f0(%rbp)
    ecd9:	8b 86 b0 00 00 00    	mov    0xb0(%rsi),%eax
    ecdf:	0f 95 85 be f9 ff ff 	setne  -0x642(%rbp)
    ece6:	8d 58 ff             	lea    -0x1(%rax),%ebx
    ece9:	89 85 20 fa ff ff    	mov    %eax,-0x5e0(%rbp)
    ecef:	48 63 db             	movslq %ebx,%rbx
    ecf2:	48 85 db             	test   %rbx,%rbx
    ecf5:	0f 84 f3 25 00 00    	je     112ee <_ZN9benchmark22RunSpecifiedBenchmarksEPNS_17BenchmarkReporterES1_+0x2dce>
    ecfb:	48 b8 ff ff ff ff ff 	movabs $0x1fffffffffffffff,%rax
    ed02:	ff ff 1f 
    ed05:	48 39 c3             	cmp    %rax,%rbx
    ed08:	0f 87 ff 2d 00 00    	ja     11b0d <_ZN9benchmark22RunSpecifiedBenchmarksEPNS_17BenchmarkReporterES1_+0x35ed>
    ed0e:	4c 8d 34 dd 00 00 00 	lea    0x0(,%rbx,8),%r14
    ed15:	00 
    ed16:	4c 89 f7             	mov    %r14,%rdi
    ed19:	e8 b2 cc ff ff       	callq  b9d0 <_Znwm@plt>
    ed1e:	49 89 c7             	mov    %rax,%r15
    ed21:	4c 89 f2             	mov    %r14,%rdx
    ed24:	48 85 c0             	test   %rax,%rax
    ed27:	0f 84 1e 07 00 00    	je     f44b <_ZN9benchmark22RunSpecifiedBenchmarksEPNS_17BenchmarkReporterES1_+0xf2b>
    ed2d:	48 c7 00 00 00 00 00 	movq   $0x0,(%rax)
    ed34:	48 83 c0 08          	add    $0x8,%rax
    ed38:	48 83 eb 01          	sub    $0x1,%rbx
    ed3c:	75 e6                	jne    ed24 <_ZN9benchmark22RunSpecifiedBenchmarksEPNS_17BenchmarkReporterES1_+0x804>
    ed3e:	48 89 d0             	mov    %rdx,%rax
    ed41:	48 8b 95 18 fa ff ff 	mov    -0x5e8(%rbp),%rdx
    ed48:	4c 01 f8             	add    %r15,%rax
    ed4b:	48 89 85 00 fa ff ff 	mov    %rax,-0x600(%rbp)
    ed52:	8b 82 9c 00 00 00    	mov    0x9c(%rdx),%eax
    ed58:	85 c0                	test   %eax,%eax
    ed5a:	0f 44 05 17 07 24 00 	cmove  0x240717(%rip),%eax        # 24f478 <FLAGS_benchmark_repetitions>
    ed61:	83 f8 01             	cmp    $0x1,%eax
    ed64:	89 85 74 f9 ff ff    	mov    %eax,-0x68c(%rbp)
    ed6a:	0f 84 90 24 00 00    	je     11200 <_ZN9benchmark22RunSpecifiedBenchmarksEPNS_17BenchmarkReporterES1_+0x2ce0>
    ed70:	8b 42 28             	mov    0x28(%rdx),%eax
    ed73:	85 c0                	test   %eax,%eax
    ed75:	0f 84 f6 09 00 00    	je     f771 <_ZN9benchmark22RunSpecifiedBenchmarksEPNS_17BenchmarkReporterES1_+0x1251>
    ed7b:	83 f8 02             	cmp    $0x2,%eax
    ed7e:	0f 94 85 bd f9 ff ff 	sete   -0x643(%rbp)
    ed85:	44 8b b5 74 f9 ff ff 	mov    -0x68c(%rbp),%r14d
    ed8c:	45 85 f6             	test   %r14d,%r14d
    ed8f:	0f 8e c1 1b 00 00    	jle    10956 <_ZN9benchmark22RunSpecifiedBenchmarksEPNS_17BenchmarkReporterES1_+0x2436>
    ed95:	48 8b 85 00 fa ff ff 	mov    -0x600(%rbp),%rax
    ed9c:	c7 85 b8 f9 ff ff 00 	movl   $0x0,-0x648(%rbp)
    eda3:	00 00 00 
    eda6:	4c 29 f8             	sub    %r15,%rax
    eda9:	48 c1 f8 03          	sar    $0x3,%rax
    edad:	48 89 85 c0 f9 ff ff 	mov    %rax,-0x640(%rbp)
    edb4:	44 8b ad b8 f9 ff ff 	mov    -0x648(%rbp),%r13d
    edbb:	45 85 ed             	test   %r13d,%r13d
    edbe:	0f 9f c0             	setg   %al
    edc1:	0a 85 be f9 ff ff    	or     -0x642(%rbp),%al
    edc7:	88 85 bf f9 ff ff    	mov    %al,-0x641(%rbp)
    edcd:	83 3d c4 0f 24 00 01 	cmpl   $0x1,0x240fc4(%rip)        # 24fd98 <_ZZN9benchmark8internal8LogLevelEvE9log_level>
    edd4:	0f 8e c3 10 00 00    	jle    fe9d <_ZN9benchmark22RunSpecifiedBenchmarksEPNS_17BenchmarkReporterES1_+0x197d>
    edda:	0f b6 05 97 0f 24 00 	movzbl 0x240f97(%rip),%eax        # 24fd78 <_ZGVZN9benchmark8internal19GetErrorLogInstanceEvE3log>
    ede1:	84 c0                	test   %al,%al
    ede3:	0f 84 5f 13 00 00    	je     10148 <_ZN9benchmark22RunSpecifiedBenchmarksEPNS_17BenchmarkReporterES1_+0x1c28>
    ede9:	48 8d 1d 90 0f 24 00 	lea    0x240f90(%rip),%rbx        # 24fd80 <_ZZN9benchmark8internal19GetErrorLogInstanceEvE3log>
    edf0:	48 8b 3b             	mov    (%rbx),%rdi
    edf3:	48 85 ff             	test   %rdi,%rdi
    edf6:	0f 84 be 00 00 00    	je     eeba <_ZN9benchmark22RunSpecifiedBenchmarksEPNS_17BenchmarkReporterES1_+0x99a>
    edfc:	48 8d 35 b1 50 03 00 	lea    0x350b1(%rip),%rsi        # 43eb4 <_ZTSFvPKvRKN8dyntrace6tracer4regsEE+0x144>
    ee03:	ba 07 00 00 00       	mov    $0x7,%edx
    ee08:	e8 53 cc ff ff       	callq  ba60 <_ZSt16__ostream_insertIcSt11char_traitsIcEERSt13basic_ostreamIT_T0_ES6_PKS3_l@plt>
    ee0d:	48 8b 3b             	mov    (%rbx),%rdi
    ee10:	48 85 ff             	test   %rdi,%rdi
    ee13:	0f 84 a1 00 00 00    	je     eeba <_ZN9benchmark22RunSpecifiedBenchmarksEPNS_17BenchmarkReporterES1_+0x99a>
    ee19:	be 02 00 00 00       	mov    $0x2,%esi
    ee1e:	e8 cd ce ff ff       	callq  bcf0 <_ZNSolsEi@plt>
    ee23:	48 8b 3b             	mov    (%rbx),%rdi
    ee26:	48 85 ff             	test   %rdi,%rdi
    ee29:	0f 84 8b 00 00 00    	je     eeba <_ZN9benchmark22RunSpecifiedBenchmarksEPNS_17BenchmarkReporterES1_+0x99a>
    ee2f:	48 8d 35 86 50 03 00 	lea    0x35086(%rip),%rsi        # 43ebc <_ZTSFvPKvRKN8dyntrace6tracer4regsEE+0x14c>
    ee36:	ba 03 00 00 00       	mov    $0x3,%edx
    ee3b:	e8 20 cc ff ff       	callq  ba60 <_ZSt16__ostream_insertIcSt11char_traitsIcEERSt13basic_ostreamIT_T0_ES6_PKS3_l@plt>
    ee40:	48 8b 3b             	mov    (%rbx),%rdi
    ee43:	48 85 ff             	test   %rdi,%rdi
    ee46:	74 72                	je     eeba <_ZN9benchmark22RunSpecifiedBenchmarksEPNS_17BenchmarkReporterES1_+0x99a>
    ee48:	48 8d 35 71 50 03 00 	lea    0x35071(%rip),%rsi        # 43ec0 <_ZTSFvPKvRKN8dyntrace6tracer4regsEE+0x150>
    ee4f:	ba 08 00 00 00       	mov    $0x8,%edx
    ee54:	e8 07 cc ff ff       	callq  ba60 <_ZSt16__ostream_insertIcSt11char_traitsIcEERSt13basic_ostreamIT_T0_ES6_PKS3_l@plt>
    ee59:	48 8b 3b             	mov    (%rbx),%rdi
    ee5c:	48 85 ff             	test   %rdi,%rdi
    ee5f:	74 59                	je     eeba <_ZN9benchmark22RunSpecifiedBenchmarksEPNS_17BenchmarkReporterES1_+0x99a>
    ee61:	48 8b 85 18 fa ff ff 	mov    -0x5e8(%rbp),%rax
    ee68:	48 8b 50 08          	mov    0x8(%rax),%rdx
    ee6c:	48 8b 30             	mov    (%rax),%rsi
    ee6f:	e8 ec cb ff ff       	callq  ba60 <_ZSt16__ostream_insertIcSt11char_traitsIcEERSt13basic_ostreamIT_T0_ES6_PKS3_l@plt>
    ee74:	48 8b 3b             	mov    (%rbx),%rdi
    ee77:	48 85 ff             	test   %rdi,%rdi
    ee7a:	74 3e                	je     eeba <_ZN9benchmark22RunSpecifiedBenchmarksEPNS_17BenchmarkReporterES1_+0x99a>
    ee7c:	48 8d 35 46 50 03 00 	lea    0x35046(%rip),%rsi        # 43ec9 <_ZTSFvPKvRKN8dyntrace6tracer4regsEE+0x159>
    ee83:	ba 05 00 00 00       	mov    $0x5,%edx
    ee88:	e8 d3 cb ff ff       	callq  ba60 <_ZSt16__ostream_insertIcSt11char_traitsIcEERSt13basic_ostreamIT_T0_ES6_PKS3_l@plt>
    ee8d:	48 8b 3b             	mov    (%rbx),%rdi
    ee90:	48 85 ff             	test   %rdi,%rdi
    ee93:	74 25                	je     eeba <_ZN9benchmark22RunSpecifiedBenchmarksEPNS_17BenchmarkReporterES1_+0x99a>
    ee95:	48 8b b5 10 fa ff ff 	mov    -0x5f0(%rbp),%rsi
    ee9c:	e8 af c9 ff ff       	callq  b850 <_ZNSo9_M_insertImEERSoT_@plt>
    eea1:	48 8b 3b             	mov    (%rbx),%rdi
    eea4:	48 85 ff             	test   %rdi,%rdi
    eea7:	74 11                	je     eeba <_ZN9benchmark22RunSpecifiedBenchmarksEPNS_17BenchmarkReporterES1_+0x99a>
    eea9:	48 8d 35 ca 69 03 00 	lea    0x369ca(%rip),%rsi        # 4587a <_ZTSN9benchmark15ConsoleReporterE+0x3a>
    eeb0:	ba 01 00 00 00       	mov    $0x1,%edx
    eeb5:	e8 a6 cb ff ff       	callq  ba60 <_ZSt16__ostream_insertIcSt11char_traitsIcEERSt13basic_ostreamIT_T0_ES6_PKS3_l@plt>
    eeba:	bf 98 01 00 00       	mov    $0x198,%edi
    eebf:	e8 0c cb ff ff       	callq  b9d0 <_Znwm@plt>
    eec4:	48 89 c3             	mov    %rax,%rbx
    eec7:	48 8b 85 18 fa ff ff 	mov    -0x5e8(%rbp),%rax
    eece:	66 0f ef c0          	pxor   %xmm0,%xmm0
    eed2:	8b 90 b0 00 00 00    	mov    0xb0(%rax),%edx
    eed8:	48 8d 43 40          	lea    0x40(%rbx),%rax
    eedc:	48 c7 03 00 00 00 00 	movq   $0x0,(%rbx)
    eee3:	0f 11 83 a8 00 00 00 	movups %xmm0,0xa8(%rbx)
    eeea:	48 89 85 d0 f9 ff ff 	mov    %rax,-0x630(%rbp)
    eef1:	48 89 43 30          	mov    %rax,0x30(%rbx)
    eef5:	48 8d 43 60          	lea    0x60(%rbx),%rax
    eef9:	0f 11 83 b8 00 00 00 	movups %xmm0,0xb8(%rbx)
    ef00:	41 89 d6             	mov    %edx,%r14d
    ef03:	0f 11 83 d8 00 00 00 	movups %xmm0,0xd8(%rbx)
    ef0a:	0f 11 83 e8 00 00 00 	movups %xmm0,0xe8(%rbx)
    ef11:	0f 29 85 20 fa ff ff 	movaps %xmm0,-0x5e0(%rbp)
    ef18:	48 89 85 c8 f9 ff ff 	mov    %rax,-0x638(%rbp)
    ef1f:	48 89 43 50          	mov    %rax,0x50(%rbx)
    ef23:	48 8d 83 80 00 00 00 	lea    0x80(%rbx),%rax
    ef2a:	89 93 d0 00 00 00    	mov    %edx,0xd0(%rbx)
    ef30:	48 c7 43 08 00 00 00 	movq   $0x0,0x8(%rbx)
    ef37:	00 
    ef38:	48 89 83 90 00 00 00 	mov    %rax,0x90(%rbx)
    ef3f:	48 89 83 98 00 00 00 	mov    %rax,0x98(%rbx)
    ef46:	48 8d 83 00 01 00 00 	lea    0x100(%rbx),%rax
    ef4d:	48 c7 43 10 00 00 00 	movq   $0x0,0x10(%rbx)
    ef54:	00 
    ef55:	48 c7 43 18 00 00 00 	movq   $0x0,0x18(%rbx)
    ef5c:	00 
    ef5d:	48 89 c7             	mov    %rax,%rdi
    ef60:	48 c7 43 20 00 00 00 	movq   $0x0,0x20(%rbx)
    ef67:	00 
    ef68:	c7 43 28 00 00 00 00 	movl   $0x0,0x28(%rbx)
    ef6f:	48 c7 43 38 00 00 00 	movq   $0x0,0x38(%rbx)
    ef76:	00 
    ef77:	c6 43 40 00          	movb   $0x0,0x40(%rbx)
    ef7b:	48 c7 43 58 00 00 00 	movq   $0x0,0x58(%rbx)
    ef82:	00 
    ef83:	c6 43 60 00          	movb   $0x0,0x60(%rbx)
    ef87:	c6 43 70 00          	movb   $0x0,0x70(%rbx)
    ef8b:	c7 83 80 00 00 00 00 	movl   $0x0,0x80(%rbx)
    ef92:	00 00 00 
    ef95:	48 c7 83 88 00 00 00 	movq   $0x0,0x88(%rbx)
    ef9c:	00 00 00 00 
    efa0:	48 c7 83 a0 00 00 00 	movq   $0x0,0xa0(%rbx)
    efa7:	00 00 00 00 
    efab:	48 c7 83 c8 00 00 00 	movq   $0x0,0xc8(%rbx)
    efb2:	00 00 00 00 
    efb6:	48 c7 83 f8 00 00 00 	movq   $0x0,0xf8(%rbx)
    efbd:	00 00 00 00 
    efc1:	48 89 85 d8 f9 ff ff 	mov    %rax,-0x628(%rbp)
    efc8:	e8 a3 cb ff ff       	callq  bb70 <_ZNSt18condition_variableC1Ev@plt>
    efcd:	66 0f 6f 85 20 fa ff 	movdqa -0x5e0(%rbp),%xmm0
    efd4:	ff 
    efd5:	48 8d 83 68 01 00 00 	lea    0x168(%rbx),%rax
    efdc:	44 89 b3 30 01 00 00 	mov    %r14d,0x130(%rbx)
    efe3:	48 c7 83 34 01 00 00 	movq   $0x0,0x134(%rbx)
    efea:	00 00 00 00 
    efee:	0f 11 83 40 01 00 00 	movups %xmm0,0x140(%rbx)
    eff5:	48 c7 83 60 01 00 00 	movq   $0x0,0x160(%rbx)
    effc:	00 00 00 00 
    f000:	48 89 c7             	mov    %rax,%rdi
    f003:	48 89 85 f8 f9 ff ff 	mov    %rax,-0x608(%rbp)
    f00a:	0f 11 83 50 01 00 00 	movups %xmm0,0x150(%rbx)
    f011:	e8 5a cb ff ff       	callq  bb70 <_ZNSt18condition_variableC1Ev@plt>
    f016:	48 83 bd c0 f9 ff ff 	cmpq   $0x0,-0x640(%rbp)
    f01d:	00 
    f01e:	0f 84 e7 00 00 00    	je     f10b <_ZN9benchmark22RunSpecifiedBenchmarksEPNS_17BenchmarkReporterES1_+0xbeb>
    f024:	48 8b 85 c0 f9 ff ff 	mov    -0x640(%rbp),%rax
    f02b:	4c 8d 2d 1e f0 ff ff 	lea    -0xfe2(%rip),%r13        # e050 <_ZN9benchmark8internal12_GLOBAL__N_111RunInThreadEPKNS0_9Benchmark8InstanceEmiPNS0_13ThreadManagerE>
    f032:	4c 8d b5 48 fa ff ff 	lea    -0x5b8(%rbp),%r14
    f039:	48 c7 85 20 fa ff ff 	movq   $0x1,-0x5e0(%rbp)
    f040:	01 00 00 00 
    f044:	4c 8d 60 01          	lea    0x1(%rax),%r12
    f048:	48 8d 85 40 fa ff ff 	lea    -0x5c0(%rbp),%rax
    f04f:	48 89 85 08 fa ff ff 	mov    %rax,-0x5f8(%rbp)
    f056:	66 2e 0f 1f 84 00 00 	nopw   %cs:0x0(%rax,%rax,1)
    f05d:	00 00 00 
    f060:	bf 30 00 00 00       	mov    $0x30,%edi
    f065:	48 c7 85 40 fa ff ff 	movq   $0x0,-0x5c0(%rbp)
    f06c:	00 00 00 00 
    f070:	e8 5b c9 ff ff       	callq  b9d0 <_Znwm@plt>
    f075:	48 8d 15 a4 f2 23 00 	lea    0x23f2a4(%rip),%rdx        # 24e320 <_ZTVNSt6thread11_State_implINS_8_InvokerISt5tupleIJPFvPKN9benchmark8internal9Benchmark8InstanceEmiPNS4_13ThreadManagerEES8_miSA_EEEEEE+0x10>
    f07c:	48 8b b5 10 fa ff ff 	mov    -0x5f0(%rbp),%rsi
    f083:	48 8b bd 08 fa ff ff 	mov    -0x5f8(%rbp),%rdi
    f08a:	48 89 58 08          	mov    %rbx,0x8(%rax)
    f08e:	4c 89 68 28          	mov    %r13,0x28(%rax)
    f092:	48 89 10             	mov    %rdx,(%rax)
    f095:	8b 95 20 fa ff ff    	mov    -0x5e0(%rbp),%edx
    f09b:	48 89 70 18          	mov    %rsi,0x18(%rax)
    f09f:	4c 89 f6             	mov    %r14,%rsi
    f0a2:	48 89 85 48 fa ff ff 	mov    %rax,-0x5b8(%rbp)
    f0a9:	89 50 10             	mov    %edx,0x10(%rax)
    f0ac:	48 8b 95 18 fa ff ff 	mov    -0x5e8(%rbp),%rdx
    f0b3:	48 89 50 20          	mov    %rdx,0x20(%rax)
    f0b7:	48 8b 15 ea fe 23 00 	mov    0x23feea(%rip),%rdx        # 24efa8 <pthread_create@GLIBC_2.2.5>
    f0be:	e8 ad c8 ff ff       	callq  b970 <_ZNSt6thread15_M_start_threadESt10unique_ptrINS_6_StateESt14default_deleteIS1_EEPFvvE@plt>
    f0c3:	48 8b bd 48 fa ff ff 	mov    -0x5b8(%rbp),%rdi
    f0ca:	48 85 ff             	test   %rdi,%rdi
    f0cd:	74 06                	je     f0d5 <_ZN9benchmark22RunSpecifiedBenchmarksEPNS_17BenchmarkReporterES1_+0xbb5>
    f0cf:	48 8b 07             	mov    (%rdi),%rax
    f0d2:	ff 50 08             	callq  *0x8(%rax)
    f0d5:	48 8b 85 20 fa ff ff 	mov    -0x5e0(%rbp),%rax
    f0dc:	49 83 7c c7 f8 00    	cmpq   $0x0,-0x8(%r15,%rax,8)
    f0e2:	0f 85 24 21 00 00    	jne    1120c <_ZN9benchmark22RunSpecifiedBenchmarksEPNS_17BenchmarkReporterES1_+0x2cec>
    f0e8:	48 89 c1             	mov    %rax,%rcx
    f0eb:	48 8b 85 40 fa ff ff 	mov    -0x5c0(%rbp),%rax
    f0f2:	49 89 44 cf f8       	mov    %rax,-0x8(%r15,%rcx,8)
    f0f7:	48 83 c1 01          	add    $0x1,%rcx
    f0fb:	49 39 cc             	cmp    %rcx,%r12
    f0fe:	48 89 8d 20 fa ff ff 	mov    %rcx,-0x5e0(%rbp)
    f105:	0f 85 55 ff ff ff    	jne    f060 <_ZN9benchmark22RunSpecifiedBenchmarksEPNS_17BenchmarkReporterES1_+0xb40>
    f10b:	4c 8b ad 18 fa ff ff 	mov    -0x5e8(%rbp),%r13
    f112:	4c 8d b5 60 fb ff ff 	lea    -0x4a0(%rbp),%r14
    f119:	48 83 ec 08          	sub    $0x8,%rsp
    f11d:	48 8b 95 a8 f9 ff ff 	mov    -0x658(%rbp),%rdx
    f124:	48 8b b5 10 fa ff ff 	mov    -0x5f0(%rbp),%rsi
    f12b:	4c 8d 8d 30 fb ff ff 	lea    -0x4d0(%rbp),%r9
    f132:	53                   	push   %rbx
    f133:	31 c9                	xor    %ecx,%ecx
    f135:	4c 89 f7             	mov    %r14,%rdi
    f138:	45 8b 85 b0 00 00 00 	mov    0xb0(%r13),%r8d
    f13f:	c6 85 30 fb ff ff 00 	movb   $0x0,-0x4d0(%rbp)
    f146:	48 c7 85 38 fb ff ff 	movq   $0x0,-0x4c8(%rbp)
    f14d:	00 00 00 00 
    f151:	48 c7 85 40 fb ff ff 	movq   $0x0,-0x4c0(%rbp)
    f158:	00 00 00 00 
    f15c:	48 c7 85 48 fb ff ff 	movq   $0x0,-0x4b8(%rbp)
    f163:	00 00 00 00 
    f167:	48 c7 85 50 fb ff ff 	movq   $0x0,-0x4b0(%rbp)
    f16e:	00 00 00 00 
    f172:	48 c7 85 58 fb ff ff 	movq   $0x0,-0x4a8(%rbp)
    f179:	00 00 00 00 
    f17d:	e8 6e e9 ff ff       	callq  daf0 <_ZN9benchmark5StateC1EmRKSt6vectorIiSaIiEEiiPNS_8internal11ThreadTimerEPNS6_13ThreadManagerE>
    f182:	49 8b 45 20          	mov    0x20(%r13),%rax
    f186:	48 8d 0d 63 2a 00 00 	lea    0x2a63(%rip),%rcx        # 11bf0 <_ZN9benchmark7Fixture3RunERNS_5StateE>
    f18d:	41 5b                	pop    %r11
    f18f:	41 5c                	pop    %r12
    f191:	49 89 c4             	mov    %rax,%r12
    f194:	48 8b 00             	mov    (%rax),%rax
    f197:	48 8b 50 10          	mov    0x10(%rax),%rdx
    f19b:	48 39 ca             	cmp    %rcx,%rdx
    f19e:	0f 85 fc 0e 00 00    	jne    100a0 <_ZN9benchmark22RunSpecifiedBenchmarksEPNS_17BenchmarkReporterES1_+0x1b80>
    f1a4:	48 8b 50 28          	mov    0x28(%rax),%rdx
    f1a8:	48 8d 0d 21 2a 00 00 	lea    0x2a21(%rip),%rcx        # 11bd0 <_ZN9benchmark7Fixture5SetUpERNS_5StateE>
    f1af:	48 39 ca             	cmp    %rcx,%rdx
    f1b2:	0f 85 78 0f 00 00    	jne    10130 <_ZN9benchmark22RunSpecifiedBenchmarksEPNS_17BenchmarkReporterES1_+0x1c10>
    f1b8:	48 8b 50 18          	mov    0x18(%rax),%rdx
    f1bc:	48 8d 0d 7d 29 00 00 	lea    0x297d(%rip),%rcx        # 11b40 <_ZN9benchmark7Fixture5SetUpERKNS_5StateE>
    f1c3:	48 39 ca             	cmp    %rcx,%rdx
    f1c6:	0f 85 64 0f 00 00    	jne    10130 <_ZN9benchmark22RunSpecifiedBenchmarksEPNS_17BenchmarkReporterES1_+0x1c10>
    f1cc:	4c 89 f6             	mov    %r14,%rsi
    f1cf:	4c 89 e7             	mov    %r12,%rdi
    f1d2:	ff 50 38             	callq  *0x38(%rax)
    f1d5:	49 8b 04 24          	mov    (%r12),%rax
    f1d9:	48 8d 0d d0 29 00 00 	lea    0x29d0(%rip),%rcx        # 11bb0 <_ZN9benchmark7Fixture8TearDownERNS_5StateE>
    f1e0:	48 8b 50 30          	mov    0x30(%rax),%rdx
    f1e4:	48 39 ca             	cmp    %rcx,%rdx
    f1e7:	0f 85 b3 0e 00 00    	jne    100a0 <_ZN9benchmark22RunSpecifiedBenchmarksEPNS_17BenchmarkReporterES1_+0x1b80>
    f1ed:	48 8b 40 20          	mov    0x20(%rax),%rax
    f1f1:	48 8d 15 58 29 00 00 	lea    0x2958(%rip),%rdx        # 11b50 <_ZN9benchmark7Fixture8TearDownERKNS_5StateE>
    f1f8:	48 39 d0             	cmp    %rdx,%rax
    f1fb:	0f 85 af 10 00 00    	jne    102b0 <_ZN9benchmark22RunSpecifiedBenchmarksEPNS_17BenchmarkReporterES1_+0x1d90>
    f201:	0f b6 05 80 0b 24 00 	movzbl 0x240b80(%rip),%eax        # 24fd88 <_ZGVZN9benchmark8internal18GetNullLogInstanceEvE3log>
    f208:	84 c0                	test   %al,%al
    f20a:	0f 84 a0 0d 00 00    	je     ffb0 <_ZN9benchmark22RunSpecifiedBenchmarksEPNS_17BenchmarkReporterES1_+0x1a90>
    f210:	48 8b 3d 79 0b 24 00 	mov    0x240b79(%rip),%rdi        # 24fd90 <_ZZN9benchmark8internal18GetNullLogInstanceEvE3log>
    f217:	48 85 ff             	test   %rdi,%rdi
    f21a:	74 11                	je     f22d <_ZN9benchmark22RunSpecifiedBenchmarksEPNS_17BenchmarkReporterES1_+0xd0d>
    f21c:	48 8d 35 75 4f 03 00 	lea    0x34f75(%rip),%rsi        # 44198 <_ZTSFvPKvRKN8dyntrace6tracer4regsEE+0x428>
    f223:	ba 3e 00 00 00       	mov    $0x3e,%edx
    f228:	e8 33 c8 ff ff       	callq  ba60 <_ZSt16__ostream_insertIcSt11char_traitsIcEERSt13basic_ostreamIT_T0_ES6_PKS3_l@plt>
    f22d:	48 83 3d 93 fd 23 00 	cmpq   $0x0,0x23fd93(%rip)        # 24efc8 <__pthread_key_create@GLIBC_2.2.5>
    f234:	00 
    f235:	48 8d 83 a8 00 00 00 	lea    0xa8(%rbx),%rax
    f23c:	c6 85 18 fb ff ff 00 	movb   $0x0,-0x4e8(%rbp)
    f243:	48 89 85 e8 f9 ff ff 	mov    %rax,-0x618(%rbp)
    f24a:	48 89 85 10 fb ff ff 	mov    %rax,-0x4f0(%rbp)
    f251:	74 14                	je     f267 <_ZN9benchmark22RunSpecifiedBenchmarksEPNS_17BenchmarkReporterES1_+0xd47>
    f253:	48 8b bd e8 f9 ff ff 	mov    -0x618(%rbp),%rdi
    f25a:	e8 91 c9 ff ff       	callq  bbf0 <pthread_mutex_lock@plt>
    f25f:	85 c0                	test   %eax,%eax
    f261:	0f 85 ab 28 00 00    	jne    11b12 <_ZN9benchmark22RunSpecifiedBenchmarksEPNS_17BenchmarkReporterES1_+0x35f2>
    f267:	c6 85 18 fb ff ff 01 	movb   $0x1,-0x4e8(%rbp)
    f26e:	0f b6 05 13 0b 24 00 	movzbl 0x240b13(%rip),%eax        # 24fd88 <_ZGVZN9benchmark8internal18GetNullLogInstanceEvE3log>
    f275:	84 c0                	test   %al,%al
    f277:	0f 84 c3 0d 00 00    	je     10040 <_ZN9benchmark22RunSpecifiedBenchmarksEPNS_17BenchmarkReporterES1_+0x1b20>
    f27d:	f2 0f 10 43 08       	movsd  0x8(%rbx),%xmm0
    f282:	f2 0f 58 85 50 fb ff 	addsd  -0x4b0(%rbp),%xmm0
    f289:	ff 
    f28a:	f2 0f 11 43 08       	movsd  %xmm0,0x8(%rbx)
    f28f:	0f b6 05 f2 0a 24 00 	movzbl 0x240af2(%rip),%eax        # 24fd88 <_ZGVZN9benchmark8internal18GetNullLogInstanceEvE3log>
    f296:	84 c0                	test   %al,%al
    f298:	0f 84 72 0d 00 00    	je     10010 <_ZN9benchmark22RunSpecifiedBenchmarksEPNS_17BenchmarkReporterES1_+0x1af0>
    f29e:	f2 0f 10 03          	movsd  (%rbx),%xmm0
    f2a2:	f2 0f 58 85 48 fb ff 	addsd  -0x4b8(%rbp),%xmm0
    f2a9:	ff 
    f2aa:	f2 0f 11 03          	movsd  %xmm0,(%rbx)
    f2ae:	0f b6 05 d3 0a 24 00 	movzbl 0x240ad3(%rip),%eax        # 24fd88 <_ZGVZN9benchmark8internal18GetNullLogInstanceEvE3log>
    f2b5:	84 c0                	test   %al,%al
    f2b7:	0f 84 23 0d 00 00    	je     ffe0 <_ZN9benchmark22RunSpecifiedBenchmarksEPNS_17BenchmarkReporterES1_+0x1ac0>
    f2bd:	f2 0f 10 43 10       	movsd  0x10(%rbx),%xmm0
    f2c2:	8b 85 98 fb ff ff    	mov    -0x468(%rbp),%eax
    f2c8:	49 8d 76 40          	lea    0x40(%r14),%rsi
    f2cc:	f3 0f 6f ad 88 fb ff 	movdqu -0x478(%rbp),%xmm5
    f2d3:	ff 
    f2d4:	f2 0f 58 85 58 fb ff 	addsd  -0x4a8(%rbp),%xmm0
    f2db:	ff 
    f2dc:	01 43 28             	add    %eax,0x28(%rbx)
    f2df:	48 8d 43 78          	lea    0x78(%rbx),%rax
    f2e3:	48 89 c7             	mov    %rax,%rdi
    f2e6:	48 89 85 f0 f9 ff ff 	mov    %rax,-0x610(%rbp)
    f2ed:	f2 0f 11 43 10       	movsd  %xmm0,0x10(%rbx)
    f2f2:	f3 0f 6f 43 18       	movdqu 0x18(%rbx),%xmm0
    f2f7:	66 0f d4 c5          	paddq  %xmm5,%xmm0
    f2fb:	0f 11 43 18          	movups %xmm0,0x18(%rbx)
    f2ff:	e8 1c 38 02 00       	callq  32b20 <_ZN9benchmark8internal9IncrementEPSt3mapINSt7__cxx1112basic_stringIcSt11char_traitsIcESaIcEEENS_7CounterESt4lessIS7_ESaISt4pairIKS7_S8_EEERKSF_>
    f304:	80 bd 18 fb ff ff 00 	cmpb   $0x0,-0x4e8(%rbp)
    f30b:	0f 85 bf 0d 00 00    	jne    100d0 <_ZN9benchmark22RunSpecifiedBenchmarksEPNS_17BenchmarkReporterES1_+0x1bb0>
    f311:	48 83 3d af fc 23 00 	cmpq   $0x0,0x23fcaf(%rip)        # 24efc8 <__pthread_key_create@GLIBC_2.2.5>
    f318:	00 
    f319:	48 8d 83 d8 00 00 00 	lea    0xd8(%rbx),%rax
    f320:	49 89 c5             	mov    %rax,%r13
    f323:	0f 84 27 0c 00 00    	je     ff50 <_ZN9benchmark22RunSpecifiedBenchmarksEPNS_17BenchmarkReporterES1_+0x1a30>
    f329:	4c 89 ef             	mov    %r13,%rdi
    f32c:	e8 bf c8 ff ff       	callq  bbf0 <pthread_mutex_lock@plt>
    f331:	85 c0                	test   %eax,%eax
    f333:	0f 85 bb 27 00 00    	jne    11af4 <_ZN9benchmark22RunSpecifiedBenchmarksEPNS_17BenchmarkReporterES1_+0x35d4>
    f339:	8b 83 38 01 00 00    	mov    0x138(%rbx),%eax
    f33f:	83 ab 30 01 00 00 01 	subl   $0x1,0x130(%rbx)
    f346:	85 c0                	test   %eax,%eax
    f348:	0f 85 29 17 00 00    	jne    10a77 <_ZN9benchmark22RunSpecifiedBenchmarksEPNS_17BenchmarkReporterES1_+0x2557>
    f34e:	4c 89 ef             	mov    %r13,%rdi
    f351:	e8 5a c5 ff ff       	callq  b8b0 <pthread_mutex_unlock@plt>
    f356:	48 8d 83 d0 00 00 00 	lea    0xd0(%rbx),%rax
    f35d:	48 89 85 20 fa ff ff 	mov    %rax,-0x5e0(%rbp)
    f364:	48 89 c2             	mov    %rax,%rdx
    f367:	b8 ff ff ff ff       	mov    $0xffffffff,%eax
    f36c:	f0 0f c1 02          	lock xadd %eax,(%rdx)
    f370:	48 8d 93 40 01 00 00 	lea    0x140(%rbx),%rdx
    f377:	83 f8 01             	cmp    $0x1,%eax
    f37a:	48 89 95 e0 f9 ff ff 	mov    %rdx,-0x620(%rbp)
    f381:	0f 84 31 0e 00 00    	je     101b8 <_ZN9benchmark22RunSpecifiedBenchmarksEPNS_17BenchmarkReporterES1_+0x1c98>
    f387:	4c 8b ad b0 fb ff ff 	mov    -0x450(%rbp),%r13
    f38e:	4d 85 ed             	test   %r13,%r13
    f391:	0f 84 1a 04 00 00    	je     f7b1 <_ZN9benchmark22RunSpecifiedBenchmarksEPNS_17BenchmarkReporterES1_+0x1291>
    f397:	49 8d 46 40          	lea    0x40(%r14),%rax
    f39b:	48 89 85 08 fa ff ff 	mov    %rax,-0x5f8(%rbp)
    f3a2:	48 8b bd 08 fa ff ff 	mov    -0x5f8(%rbp),%rdi
    f3a9:	49 8b 75 18          	mov    0x18(%r13),%rsi
    f3ad:	e8 de 28 00 00       	callq  11c90 <_ZNSt8_Rb_treeINSt7__cxx1112basic_stringIcSt11char_traitsIcESaIcEEESt4pairIKS5_N9benchmark7CounterEESt10_Select1stISA_ESt4lessIS5_ESaISA_EE8_M_eraseEPSt13_Rb_tree_nodeISA_E>
    f3b2:	49 8b 7d 20          	mov    0x20(%r13),%rdi
    f3b6:	49 8d 55 30          	lea    0x30(%r13),%rdx
    f3ba:	4d 8b 65 10          	mov    0x10(%r13),%r12
    f3be:	48 39 d7             	cmp    %rdx,%rdi
    f3c1:	0f 84 d9 03 00 00    	je     f7a0 <_ZN9benchmark22RunSpecifiedBenchmarksEPNS_17BenchmarkReporterES1_+0x1280>
    f3c7:	e8 d4 c5 ff ff       	callq  b9a0 <_ZdlPv@plt>
    f3cc:	4c 89 ef             	mov    %r13,%rdi
    f3cf:	e8 cc c5 ff ff       	callq  b9a0 <_ZdlPv@plt>
    f3d4:	4d 85 e4             	test   %r12,%r12
    f3d7:	0f 84 d4 03 00 00    	je     f7b1 <_ZN9benchmark22RunSpecifiedBenchmarksEPNS_17BenchmarkReporterES1_+0x1291>
    f3dd:	4d 89 e5             	mov    %r12,%r13
    f3e0:	eb c0                	jmp    f3a2 <_ZN9benchmark22RunSpecifiedBenchmarksEPNS_17BenchmarkReporterES1_+0xe82>
    f3e2:	48 8d 35 d0 49 03 00 	lea    0x349d0(%rip),%rsi        # 43db9 <_ZTSFvPKvRKN8dyntrace6tracer4regsEE+0x49>
    f3e9:	48 8d 3d b0 08 24 00 	lea    0x2408b0(%rip),%rdi        # 24fca0 <_Z21FLAGS_benchmark_colorB5cxx11>
    f3f0:	e8 5b c2 ff ff       	callq  b650 <_ZNKSt7__cxx1112basic_stringIcSt11char_traitsIcESaIcEE7compareEPKc@plt>
    f3f5:	85 c0                	test   %eax,%eax
    f3f7:	0f 85 9e 02 00 00    	jne    f69b <_ZN9benchmark22RunSpecifiedBenchmarksEPNS_17BenchmarkReporterES1_+0x117b>
    f3fd:	e8 8e d9 01 00       	callq  2cd90 <_ZN9benchmark15IsColorTerminalEv>
    f402:	84 c0                	test   %al,%al
    f404:	0f 84 91 02 00 00    	je     f69b <_ZN9benchmark22RunSpecifiedBenchmarksEPNS_17BenchmarkReporterES1_+0x117b>
    f40a:	b8 03 00 00 00       	mov    $0x3,%eax
    f40f:	ba 01 00 00 00       	mov    $0x1,%edx
    f414:	80 3d 69 08 24 00 00 	cmpb   $0x0,0x240869(%rip)        # 24fc84 <FLAGS_benchmark_counters_tabular>
    f41b:	48 8d bd 38 fa ff ff 	lea    -0x5c8(%rbp),%rdi
    f422:	48 8d 35 d7 08 24 00 	lea    0x2408d7(%rip),%rsi        # 24fd00 <_Z22FLAGS_benchmark_formatB5cxx11>
    f429:	0f 45 d0             	cmovne %eax,%edx
    f42c:	e8 7f da ff ff       	callq  ceb0 <_ZN9benchmark8internal12_GLOBAL__N_114CreateReporterERKNSt7__cxx1112basic_stringIcSt11char_traitsIcESaIcEEENS_15ConsoleReporter13OutputOptionsE>
    f431:	48 8b 85 38 fa ff ff 	mov    -0x5c8(%rbp),%rax
    f438:	48 89 85 98 f9 ff ff 	mov    %rax,-0x668(%rbp)
    f43f:	48 89 85 88 f9 ff ff 	mov    %rax,-0x678(%rbp)
    f446:	e9 7d f2 ff ff       	jmpq   e6c8 <_ZN9benchmark22RunSpecifiedBenchmarksEPNS_17BenchmarkReporterES1_+0x1a8>
    f44b:	48 83 eb 01          	sub    $0x1,%rbx
    f44f:	0f 84 e9 f8 ff ff    	je     ed3e <_ZN9benchmark22RunSpecifiedBenchmarksEPNS_17BenchmarkReporterES1_+0x81e>
    f455:	b8 08 00 00 00       	mov    $0x8,%eax
    f45a:	e9 ce f8 ff ff       	jmpq   ed2d <_ZN9benchmark22RunSpecifiedBenchmarksEPNS_17BenchmarkReporterES1_+0x80d>
    f45f:	4c 89 e7             	mov    %r12,%rdi
    f462:	e8 39 c5 ff ff       	callq  b9a0 <_ZdlPv@plt>
    f467:	4d 85 ed             	test   %r13,%r13
    f46a:	0f 85 71 19 00 00    	jne    10de1 <_ZN9benchmark22RunSpecifiedBenchmarksEPNS_17BenchmarkReporterES1_+0x28c1>
    f470:	48 8b 7b 80          	mov    -0x80(%rbx),%rdi
    f474:	48 8d 43 90          	lea    -0x70(%rbx),%rax
    f478:	48 39 c7             	cmp    %rax,%rdi
    f47b:	74 05                	je     f482 <_ZN9benchmark22RunSpecifiedBenchmarksEPNS_17BenchmarkReporterES1_+0xf62>
    f47d:	e8 1e c5 ff ff       	callq  b9a0 <_ZdlPv@plt>
    f482:	48 8b bb 58 ff ff ff 	mov    -0xa8(%rbx),%rdi
    f489:	48 8d 83 68 ff ff ff 	lea    -0x98(%rbx),%rax
    f490:	48 39 c7             	cmp    %rax,%rdi
    f493:	74 05                	je     f49a <_ZN9benchmark22RunSpecifiedBenchmarksEPNS_17BenchmarkReporterES1_+0xf7a>
    f495:	e8 06 c5 ff ff       	callq  b9a0 <_ZdlPv@plt>
    f49a:	48 8b bb 38 ff ff ff 	mov    -0xc8(%rbx),%rdi
    f4a1:	48 8d 83 48 ff ff ff 	lea    -0xb8(%rbx),%rax
    f4a8:	48 39 c7             	cmp    %rax,%rdi
    f4ab:	0f 84 ea 1b 00 00    	je     1109b <_ZN9benchmark22RunSpecifiedBenchmarksEPNS_17BenchmarkReporterES1_+0x2b7b>
    f4b1:	48 81 c3 f8 00 00 00 	add    $0xf8,%rbx
    f4b8:	e8 e3 c4 ff ff       	callq  b9a0 <_ZdlPv@plt>
    f4bd:	4c 39 fb             	cmp    %r15,%rbx
    f4c0:	0f 85 d3 18 00 00    	jne    10d99 <_ZN9benchmark22RunSpecifiedBenchmarksEPNS_17BenchmarkReporterES1_+0x2879>
    f4c6:	48 8b bd f0 fa ff ff 	mov    -0x510(%rbp),%rdi
    f4cd:	48 85 ff             	test   %rdi,%rdi
    f4d0:	74 05                	je     f4d7 <_ZN9benchmark22RunSpecifiedBenchmarksEPNS_17BenchmarkReporterES1_+0xfb7>
    f4d2:	e8 c9 c4 ff ff       	callq  b9a0 <_ZdlPv@plt>
    f4d7:	48 81 85 18 fa ff ff 	addq   $0xb8,-0x5e8(%rbp)
    f4de:	b8 00 00 00 
    f4e2:	48 81 85 a8 f9 ff ff 	addq   $0xb8,-0x658(%rbp)
    f4e9:	b8 00 00 00 
    f4ed:	48 8b 85 18 fa ff ff 	mov    -0x5e8(%rbp),%rax
    f4f4:	48 39 85 68 f9 ff ff 	cmp    %rax,-0x698(%rbp)
    f4fb:	0f 85 a1 f7 ff ff    	jne    eca2 <_ZN9benchmark22RunSpecifiedBenchmarksEPNS_17BenchmarkReporterES1_+0x782>
    f501:	48 8b bd 98 f9 ff ff 	mov    -0x668(%rbp),%rdi
    f508:	48 8b 07             	mov    (%rdi),%rax
    f50b:	ff 50 10             	callq  *0x10(%rax)
    f50e:	48 83 bd 90 f9 ff ff 	cmpq   $0x0,-0x670(%rbp)
    f515:	00 
    f516:	74 0d                	je     f525 <_ZN9benchmark22RunSpecifiedBenchmarksEPNS_17BenchmarkReporterES1_+0x1005>
    f518:	48 8b bd 90 f9 ff ff 	mov    -0x670(%rbp),%rdi
    f51f:	48 8b 07             	mov    (%rdi),%rax
    f522:	ff 50 10             	callq  *0x10(%rax)
    f525:	48 8b 85 98 f9 ff ff 	mov    -0x668(%rbp),%rax
    f52c:	48 8b 78 08          	mov    0x8(%rax),%rdi
    f530:	e8 2b c3 ff ff       	callq  b860 <_ZNSo5flushEv@plt>
    f535:	48 8b 85 98 f9 ff ff 	mov    -0x668(%rbp),%rax
    f53c:	48 8b 78 10          	mov    0x10(%rax),%rdi
    f540:	e8 1b c3 ff ff       	callq  b860 <_ZNSo5flushEv@plt>
    f545:	48 83 bd 90 f9 ff ff 	cmpq   $0x0,-0x670(%rbp)
    f54c:	00 
    f54d:	74 19                	je     f568 <_ZN9benchmark22RunSpecifiedBenchmarksEPNS_17BenchmarkReporterES1_+0x1048>
    f54f:	48 8b 9d 90 f9 ff ff 	mov    -0x670(%rbp),%rbx
    f556:	48 8b 7b 08          	mov    0x8(%rbx),%rdi
    f55a:	e8 01 c3 ff ff       	callq  b860 <_ZNSo5flushEv@plt>
    f55f:	48 8b 7b 10          	mov    0x10(%rbx),%rdi
    f563:	e8 f8 c2 ff ff       	callq  b860 <_ZNSo5flushEv@plt>
    f568:	48 8b 85 d8 fa ff ff 	mov    -0x528(%rbp),%rax
    f56f:	48 8b bd d0 fa ff ff 	mov    -0x530(%rbp),%rdi
    f576:	48 39 f8             	cmp    %rdi,%rax
    f579:	0f 84 f7 00 00 00    	je     f676 <_ZN9benchmark22RunSpecifiedBenchmarksEPNS_17BenchmarkReporterES1_+0x1156>
    f57f:	48 8d 97 f8 00 00 00 	lea    0xf8(%rdi),%rdx
    f586:	48 8d 9f c8 00 00 00 	lea    0xc8(%rdi),%rbx
    f58d:	48 29 d0             	sub    %rdx,%rax
    f590:	48 ba df 7b ef bd f7 	movabs $0xf7bdef7bdef7bdf,%rdx
    f597:	de 7b 0f 
    f59a:	48 c1 e8 03          	shr    $0x3,%rax
    f59e:	48 0f af c2          	imul   %rdx,%rax
    f5a2:	48 ba ff ff ff ff ff 	movabs $0x1fffffffffffffff,%rdx
    f5a9:	ff ff 1f 
    f5ac:	48 21 d0             	and    %rdx,%rax
    f5af:	48 89 c2             	mov    %rax,%rdx
    f5b2:	48 c1 e2 05          	shl    $0x5,%rdx
    f5b6:	48 29 c2             	sub    %rax,%rdx
    f5b9:	48 8d 84 d7 c0 01 00 	lea    0x1c0(%rdi,%rdx,8),%rax
    f5c0:	00 
    f5c1:	49 89 c7             	mov    %rax,%r15
    f5c4:	0f 1f 40 00          	nopl   0x0(%rax)
    f5c8:	4c 8b 63 10          	mov    0x10(%rbx),%r12
    f5cc:	4d 85 e4             	test   %r12,%r12
    f5cf:	74 4c                	je     f61d <_ZN9benchmark22RunSpecifiedBenchmarksEPNS_17BenchmarkReporterES1_+0x10fd>
    f5d1:	49 8b 74 24 18       	mov    0x18(%r12),%rsi
    f5d6:	48 89 df             	mov    %rbx,%rdi
    f5d9:	e8 b2 26 00 00       	callq  11c90 <_ZNSt8_Rb_treeINSt7__cxx1112basic_stringIcSt11char_traitsIcESaIcEEESt4pairIKS5_N9benchmark7CounterEESt10_Select1stISA_ESt4lessIS5_ESaISA_EE8_M_eraseEPSt13_Rb_tree_nodeISA_E>
    f5de:	49 8b 7c 24 20       	mov    0x20(%r12),%rdi
    f5e3:	49 8d 44 24 30       	lea    0x30(%r12),%rax
    f5e8:	4d 8b 6c 24 10       	mov    0x10(%r12),%r13
    f5ed:	48 39 c7             	cmp    %rax,%rdi
    f5f0:	74 1e                	je     f610 <_ZN9benchmark22RunSpecifiedBenchmarksEPNS_17BenchmarkReporterES1_+0x10f0>
    f5f2:	e8 a9 c3 ff ff       	callq  b9a0 <_ZdlPv@plt>
    f5f7:	4c 89 e7             	mov    %r12,%rdi
    f5fa:	e8 a1 c3 ff ff       	callq  b9a0 <_ZdlPv@plt>
    f5ff:	4d 85 ed             	test   %r13,%r13
    f602:	74 19                	je     f61d <_ZN9benchmark22RunSpecifiedBenchmarksEPNS_17BenchmarkReporterES1_+0x10fd>
    f604:	4d 89 ec             	mov    %r13,%r12
    f607:	eb c8                	jmp    f5d1 <_ZN9benchmark22RunSpecifiedBenchmarksEPNS_17BenchmarkReporterES1_+0x10b1>
    f609:	0f 1f 80 00 00 00 00 	nopl   0x0(%rax)
    f610:	4c 89 e7             	mov    %r12,%rdi
    f613:	e8 88 c3 ff ff       	callq  b9a0 <_ZdlPv@plt>
    f618:	4d 85 ed             	test   %r13,%r13
    f61b:	75 e7                	jne    f604 <_ZN9benchmark22RunSpecifiedBenchmarksEPNS_17BenchmarkReporterES1_+0x10e4>
    f61d:	48 8b 7b 80          	mov    -0x80(%rbx),%rdi
    f621:	48 8d 43 90          	lea    -0x70(%rbx),%rax
    f625:	48 39 c7             	cmp    %rax,%rdi
    f628:	74 05                	je     f62f <_ZN9benchmark22RunSpecifiedBenchmarksEPNS_17BenchmarkReporterES1_+0x110f>
    f62a:	e8 71 c3 ff ff       	callq  b9a0 <_ZdlPv@plt>
    f62f:	48 8b bb 58 ff ff ff 	mov    -0xa8(%rbx),%rdi
    f636:	48 8d 83 68 ff ff ff 	lea    -0x98(%rbx),%rax
    f63d:	48 39 c7             	cmp    %rax,%rdi
    f640:	74 05                	je     f647 <_ZN9benchmark22RunSpecifiedBenchmarksEPNS_17BenchmarkReporterES1_+0x1127>
    f642:	e8 59 c3 ff ff       	callq  b9a0 <_ZdlPv@plt>
    f647:	48 8b bb 38 ff ff ff 	mov    -0xc8(%rbx),%rdi
    f64e:	48 8d 83 48 ff ff ff 	lea    -0xb8(%rbx),%rax
    f655:	48 39 c7             	cmp    %rax,%rdi
    f658:	74 2f                	je     f689 <_ZN9benchmark22RunSpecifiedBenchmarksEPNS_17BenchmarkReporterES1_+0x1169>
    f65a:	48 81 c3 f8 00 00 00 	add    $0xf8,%rbx
    f661:	e8 3a c3 ff ff       	callq  b9a0 <_ZdlPv@plt>
    f666:	4c 39 fb             	cmp    %r15,%rbx
    f669:	0f 85 59 ff ff ff    	jne    f5c8 <_ZN9benchmark22RunSpecifiedBenchmarksEPNS_17BenchmarkReporterES1_+0x10a8>
    f66f:	48 8b bd d0 fa ff ff 	mov    -0x530(%rbp),%rdi
    f676:	48 85 ff             	test   %rdi,%rdi
    f679:	0f 84 26 f1 ff ff    	je     e7a5 <_ZN9benchmark22RunSpecifiedBenchmarksEPNS_17BenchmarkReporterES1_+0x285>
    f67f:	e8 1c c3 ff ff       	callq  b9a0 <_ZdlPv@plt>
    f684:	e9 1c f1 ff ff       	jmpq   e7a5 <_ZN9benchmark22RunSpecifiedBenchmarksEPNS_17BenchmarkReporterES1_+0x285>
    f689:	48 81 c3 f8 00 00 00 	add    $0xf8,%rbx
    f690:	49 39 df             	cmp    %rbx,%r15
    f693:	0f 85 2f ff ff ff    	jne    f5c8 <_ZN9benchmark22RunSpecifiedBenchmarksEPNS_17BenchmarkReporterES1_+0x10a8>
    f699:	eb d4                	jmp    f66f <_ZN9benchmark22RunSpecifiedBenchmarksEPNS_17BenchmarkReporterES1_+0x114f>
    f69b:	48 8d 3d fe 05 24 00 	lea    0x2405fe(%rip),%rdi        # 24fca0 <_Z21FLAGS_benchmark_colorB5cxx11>
    f6a2:	e8 79 f3 01 00       	callq  2ea20 <_ZN9benchmark17IsTruthyFlagValueERKNSt7__cxx1112basic_stringIcSt11char_traitsIcESaIcEEE>
    f6a7:	84 c0                	test   %al,%al
    f6a9:	0f 85 5b fd ff ff    	jne    f40a <_ZN9benchmark22RunSpecifiedBenchmarksEPNS_17BenchmarkReporterES1_+0xeea>
    f6af:	b8 02 00 00 00       	mov    $0x2,%eax
    f6b4:	31 d2                	xor    %edx,%edx
    f6b6:	e9 59 fd ff ff       	jmpq   f414 <_ZN9benchmark22RunSpecifiedBenchmarksEPNS_17BenchmarkReporterES1_+0xef4>
    f6bb:	8b 73 20             	mov    0x20(%rbx),%esi
    f6be:	83 ce 04             	or     $0x4,%esi
    f6c1:	e8 ea c5 ff ff       	callq  bcb0 <_ZNSt9basic_iosIcSt11char_traitsIcEE5clearESt12_Ios_Iostate@plt>
    f6c6:	e9 5c f3 ff ff       	jmpq   ea27 <_ZN9benchmark22RunSpecifiedBenchmarksEPNS_17BenchmarkReporterES1_+0x507>
    f6cb:	48 8d 35 5e 4b 03 00 	lea    0x34b5e(%rip),%rsi        # 44230 <_ZTSFvPKvRKN8dyntrace6tracer4regsEE+0x4c0>
    f6d2:	ba 2e 00 00 00       	mov    $0x2e,%edx
    f6d7:	4c 89 e7             	mov    %r12,%rdi
    f6da:	e8 81 c3 ff ff       	callq  ba60 <_ZSt16__ostream_insertIcSt11char_traitsIcEERSt13basic_ostreamIT_T0_ES6_PKS3_l@plt>
    f6df:	48 8b 95 f8 fb ff ff 	mov    -0x408(%rbp),%rdx
    f6e6:	48 8b b5 f0 fb ff ff 	mov    -0x410(%rbp),%rsi
    f6ed:	4c 89 e7             	mov    %r12,%rdi
    f6f0:	e8 6b c3 ff ff       	callq  ba60 <_ZSt16__ostream_insertIcSt11char_traitsIcEERSt13basic_ostreamIT_T0_ES6_PKS3_l@plt>
    f6f5:	48 8d 35 7e 61 03 00 	lea    0x3617e(%rip),%rsi        # 4587a <_ZTSN9benchmark15ConsoleReporterE+0x3a>
    f6fc:	ba 01 00 00 00       	mov    $0x1,%edx
    f701:	48 89 c7             	mov    %rax,%rdi
    f704:	e8 57 c3 ff ff       	callq  ba60 <_ZSt16__ostream_insertIcSt11char_traitsIcEERSt13basic_ostreamIT_T0_ES6_PKS3_l@plt>
    f709:	48 8b bd b8 fa ff ff 	mov    -0x548(%rbp),%rdi
    f710:	48 8b 8d b0 fa ff ff 	mov    -0x550(%rbp),%rcx
    f717:	45 31 e4             	xor    %r12d,%r12d
    f71a:	e9 ac f0 ff ff       	jmpq   e7cb <_ZN9benchmark22RunSpecifiedBenchmarksEPNS_17BenchmarkReporterES1_+0x2ab>
    f71f:	48 8d bd f0 fa ff ff 	lea    -0x510(%rbp),%rdi
    f726:	48 8d 35 b3 05 24 00 	lea    0x2405b3(%rip),%rsi        # 24fce0 <_Z26FLAGS_benchmark_out_formatB5cxx11>
    f72d:	31 d2                	xor    %edx,%edx
    f72f:	e8 7c d7 ff ff       	callq  ceb0 <_ZN9benchmark8internal12_GLOBAL__N_114CreateReporterERKNSt7__cxx1112basic_stringIcSt11char_traitsIcESaIcEEENS_15ConsoleReporter13OutputOptionsE>
    f734:	48 8b 85 f0 fa ff ff 	mov    -0x510(%rbp),%rax
    f73b:	48 89 85 90 f9 ff ff 	mov    %rax,-0x670(%rbp)
    f742:	48 89 85 80 f9 ff ff 	mov    %rax,-0x680(%rbp)
    f749:	e9 0a f3 ff ff       	jmpq   ea58 <_ZN9benchmark22RunSpecifiedBenchmarksEPNS_17BenchmarkReporterES1_+0x538>
    f74e:	48 8d 3d 33 06 24 00 	lea    0x240633(%rip),%rdi        # 24fd88 <_ZGVZN9benchmark8internal18GetNullLogInstanceEvE3log>
    f755:	e8 e6 c5 ff ff       	callq  bd40 <__cxa_guard_acquire@plt>
    f75a:	85 c0                	test   %eax,%eax
    f75c:	75 25                	jne    f783 <_ZN9benchmark22RunSpecifiedBenchmarksEPNS_17BenchmarkReporterES1_+0x1263>
    f75e:	48 8b 9d b8 fa ff ff 	mov    -0x548(%rbp),%rbx
    f765:	48 8b 95 b0 fa ff ff 	mov    -0x550(%rbp),%rdx
    f76c:	e9 64 f3 ff ff       	jmpq   ead5 <_ZN9benchmark22RunSpecifiedBenchmarksEPNS_17BenchmarkReporterES1_+0x5b5>
    f771:	0f b6 05 a8 05 24 00 	movzbl 0x2405a8(%rip),%eax        # 24fd20 <FLAGS_benchmark_report_aggregates_only>
    f778:	88 85 bd f9 ff ff    	mov    %al,-0x643(%rbp)
    f77e:	e9 02 f6 ff ff       	jmpq   ed85 <_ZN9benchmark22RunSpecifiedBenchmarksEPNS_17BenchmarkReporterES1_+0x865>
    f783:	48 8d 3d fe 05 24 00 	lea    0x2405fe(%rip),%rdi        # 24fd88 <_ZGVZN9benchmark8internal18GetNullLogInstanceEvE3log>
    f78a:	48 c7 05 fb 05 24 00 	movq   $0x0,0x2405fb(%rip)        # 24fd90 <_ZZN9benchmark8internal18GetNullLogInstanceEvE3log>
    f791:	00 00 00 00 
    f795:	e8 96 c0 ff ff       	callq  b830 <__cxa_guard_release@plt>
    f79a:	eb c2                	jmp    f75e <_ZN9benchmark22RunSpecifiedBenchmarksEPNS_17BenchmarkReporterES1_+0x123e>
    f79c:	0f 1f 40 00          	nopl   0x0(%rax)
    f7a0:	4c 89 ef             	mov    %r13,%rdi
    f7a3:	e8 f8 c1 ff ff       	callq  b9a0 <_ZdlPv@plt>
    f7a8:	4d 85 e4             	test   %r12,%r12
    f7ab:	0f 85 2c fc ff ff    	jne    f3dd <_ZN9benchmark22RunSpecifiedBenchmarksEPNS_17BenchmarkReporterES1_+0xebd>
    f7b1:	48 8b bd 70 fb ff ff 	mov    -0x490(%rbp),%rdi
    f7b8:	48 85 ff             	test   %rdi,%rdi
    f7bb:	74 05                	je     f7c2 <_ZN9benchmark22RunSpecifiedBenchmarksEPNS_17BenchmarkReporterES1_+0x12a2>
    f7bd:	e8 de c1 ff ff       	callq  b9a0 <_ZdlPv@plt>
    f7c2:	48 83 3d fe f7 23 00 	cmpq   $0x0,0x23f7fe(%rip)        # 24efc8 <__pthread_key_create@GLIBC_2.2.5>
    f7c9:	00 
    f7ca:	48 8b 85 e0 f9 ff ff 	mov    -0x620(%rbp),%rax
    f7d1:	c6 85 a8 fa ff ff 00 	movb   $0x0,-0x558(%rbp)
    f7d8:	48 89 85 a0 fa ff ff 	mov    %rax,-0x560(%rbp)
    f7df:	74 10                	je     f7f1 <_ZN9benchmark22RunSpecifiedBenchmarksEPNS_17BenchmarkReporterES1_+0x12d1>
    f7e1:	48 89 c7             	mov    %rax,%rdi
    f7e4:	e8 07 c4 ff ff       	callq  bbf0 <pthread_mutex_lock@plt>
    f7e9:	85 c0                	test   %eax,%eax
    f7eb:	0f 85 59 22 00 00    	jne    11a4a <_ZN9benchmark22RunSpecifiedBenchmarksEPNS_17BenchmarkReporterES1_+0x352a>
    f7f1:	c6 85 a8 fa ff ff 01 	movb   $0x1,-0x558(%rbp)
    f7f8:	4c 8d ad a0 fa ff ff 	lea    -0x560(%rbp),%r13
    f7ff:	4c 8b a5 f8 f9 ff ff 	mov    -0x608(%rbp),%r12
    f806:	48 8b 85 20 fa ff ff 	mov    -0x5e0(%rbp),%rax
    f80d:	eb 13                	jmp    f822 <_ZN9benchmark22RunSpecifiedBenchmarksEPNS_17BenchmarkReporterES1_+0x1302>
    f80f:	90                   	nop
    f810:	4c 89 ee             	mov    %r13,%rsi
    f813:	4c 89 e7             	mov    %r12,%rdi
    f816:	e8 55 c4 ff ff       	callq  bc70 <_ZNSt18condition_variable4waitERSt11unique_lockISt5mutexE@plt>
    f81b:	48 8b 85 20 fa ff ff 	mov    -0x5e0(%rbp),%rax
    f822:	8b 00                	mov    (%rax),%eax
    f824:	85 c0                	test   %eax,%eax
    f826:	75 e8                	jne    f810 <_ZN9benchmark22RunSpecifiedBenchmarksEPNS_17BenchmarkReporterES1_+0x12f0>
    f828:	80 bd a8 fa ff ff 00 	cmpb   $0x0,-0x558(%rbp)
    f82f:	0f 85 3b 08 00 00    	jne    10070 <_ZN9benchmark22RunSpecifiedBenchmarksEPNS_17BenchmarkReporterES1_+0x1b50>
    f835:	4c 39 bd 00 fa ff ff 	cmp    %r15,-0x600(%rbp)
    f83c:	74 25                	je     f863 <_ZN9benchmark22RunSpecifiedBenchmarksEPNS_17BenchmarkReporterES1_+0x1343>
    f83e:	4c 89 f8             	mov    %r15,%rax
    f841:	0f 1f 80 00 00 00 00 	nopl   0x0(%rax)
    f848:	48 89 c7             	mov    %rax,%rdi
    f84b:	49 89 c4             	mov    %rax,%r12
    f84e:	e8 7d c4 ff ff       	callq  bcd0 <_ZNSt6thread4joinEv@plt>
    f853:	4c 89 e0             	mov    %r12,%rax
    f856:	48 83 c0 08          	add    $0x8,%rax
    f85a:	48 39 85 00 fa ff ff 	cmp    %rax,-0x600(%rbp)
    f861:	75 e5                	jne    f848 <_ZN9benchmark22RunSpecifiedBenchmarksEPNS_17BenchmarkReporterES1_+0x1328>
    f863:	48 8d b5 10 fc ff ff 	lea    -0x3f0(%rbp),%rsi
    f86a:	48 83 3d 56 f7 23 00 	cmpq   $0x0,0x23f756(%rip)        # 24efc8 <__pthread_key_create@GLIBC_2.2.5>
    f871:	00 
    f872:	48 c7 85 10 fc ff ff 	movq   $0x0,-0x3f0(%rbp)
    f879:	00 00 00 00 
    f87d:	48 c7 85 18 fc ff ff 	movq   $0x0,-0x3e8(%rbp)
    f884:	00 00 00 00 
    f888:	48 c7 85 20 fc ff ff 	movq   $0x0,-0x3e0(%rbp)
    f88f:	00 00 00 00 
    f893:	48 8d 46 40          	lea    0x40(%rsi),%rax
    f897:	48 c7 85 28 fc ff ff 	movq   $0x0,-0x3d8(%rbp)
    f89e:	00 00 00 00 
    f8a2:	48 c7 85 30 fc ff ff 	movq   $0x0,-0x3d0(%rbp)
    f8a9:	00 00 00 00 
    f8ad:	c7 85 38 fc ff ff 00 	movl   $0x0,-0x3c8(%rbp)
    f8b4:	00 00 00 
    f8b7:	48 89 b5 20 fa ff ff 	mov    %rsi,-0x5e0(%rbp)
    f8be:	48 89 85 40 fc ff ff 	mov    %rax,-0x3c0(%rbp)
    f8c5:	48 8d 46 60          	lea    0x60(%rsi),%rax
    f8c9:	48 c7 85 48 fc ff ff 	movq   $0x0,-0x3b8(%rbp)
    f8d0:	00 00 00 00 
    f8d4:	c6 85 50 fc ff ff 00 	movb   $0x0,-0x3b0(%rbp)
    f8db:	48 c7 85 68 fc ff ff 	movq   $0x0,-0x398(%rbp)
    f8e2:	00 00 00 00 
    f8e6:	48 89 85 60 fc ff ff 	mov    %rax,-0x3a0(%rbp)
    f8ed:	48 8d 86 80 00 00 00 	lea    0x80(%rsi),%rax
    f8f4:	c6 85 70 fc ff ff 00 	movb   $0x0,-0x390(%rbp)
    f8fb:	c6 85 80 fc ff ff 00 	movb   $0x0,-0x380(%rbp)
    f902:	c7 85 90 fc ff ff 00 	movl   $0x0,-0x370(%rbp)
    f909:	00 00 00 
    f90c:	48 89 85 a0 fc ff ff 	mov    %rax,-0x360(%rbp)
    f913:	48 89 85 a8 fc ff ff 	mov    %rax,-0x358(%rbp)
    f91a:	48 8b 85 e8 f9 ff ff 	mov    -0x618(%rbp),%rax
    f921:	48 c7 85 98 fc ff ff 	movq   $0x0,-0x368(%rbp)
    f928:	00 00 00 00 
    f92c:	48 c7 85 b0 fc ff ff 	movq   $0x0,-0x350(%rbp)
    f933:	00 00 00 00 
    f937:	c6 85 68 fb ff ff 00 	movb   $0x0,-0x498(%rbp)
    f93e:	48 89 85 60 fb ff ff 	mov    %rax,-0x4a0(%rbp)
    f945:	74 10                	je     f957 <_ZN9benchmark22RunSpecifiedBenchmarksEPNS_17BenchmarkReporterES1_+0x1437>
    f947:	48 89 c7             	mov    %rax,%rdi
    f94a:	e8 a1 c2 ff ff       	callq  bbf0 <pthread_mutex_lock@plt>
    f94f:	85 c0                	test   %eax,%eax
    f951:	0f 85 14 21 00 00    	jne    11a6b <_ZN9benchmark22RunSpecifiedBenchmarksEPNS_17BenchmarkReporterES1_+0x354b>
    f957:	66 0f 10 03          	movupd (%rbx),%xmm0
    f95b:	48 8d 73 30          	lea    0x30(%rbx),%rsi
    f95f:	4c 8b a5 20 fa ff ff 	mov    -0x5e0(%rbp),%r12
    f966:	8b 43 28             	mov    0x28(%rbx),%eax
    f969:	0f 29 85 10 fc ff ff 	movaps %xmm0,-0x3f0(%rbp)
    f970:	c6 85 68 fb ff ff 01 	movb   $0x1,-0x498(%rbp)
    f977:	49 8d 7c 24 30       	lea    0x30(%r12),%rdi
    f97c:	f2 0f 10 43 10       	movsd  0x10(%rbx),%xmm0
    f981:	89 85 38 fc ff ff    	mov    %eax,-0x3c8(%rbp)
    f987:	f2 0f 11 85 20 fc ff 	movsd  %xmm0,-0x3e0(%rbp)
    f98e:	ff 
    f98f:	f3 0f 6f 43 18       	movdqu 0x18(%rbx),%xmm0
    f994:	0f 11 85 28 fc ff ff 	movups %xmm0,-0x3d8(%rbp)
    f99b:	e8 20 be ff ff       	callq  b7c0 <_ZNSt7__cxx1112basic_stringIcSt11char_traitsIcESaIcEE9_M_assignERKS4_@plt>
    f9a0:	48 8d 73 50          	lea    0x50(%rbx),%rsi
    f9a4:	49 8d 7c 24 50       	lea    0x50(%r12),%rdi
    f9a9:	e8 12 be ff ff       	callq  b7c0 <_ZNSt7__cxx1112basic_stringIcSt11char_traitsIcESaIcEE9_M_assignERKS4_@plt>
    f9ae:	0f b6 43 70          	movzbl 0x70(%rbx),%eax
    f9b2:	48 8b b5 f0 f9 ff ff 	mov    -0x610(%rbp),%rsi
    f9b9:	49 8d 7c 24 78       	lea    0x78(%r12),%rdi
    f9be:	88 85 80 fc ff ff    	mov    %al,-0x380(%rbp)
    f9c4:	e8 c7 2f 00 00       	callq  12990 <_ZNSt8_Rb_treeINSt7__cxx1112basic_stringIcSt11char_traitsIcESaIcEEESt4pairIKS5_N9benchmark7CounterEESt10_Select1stISA_ESt4lessIS5_ESaISA_EEaSERKSG_>
    f9c9:	80 bd 68 fb ff ff 00 	cmpb   $0x0,-0x498(%rbp)
    f9d0:	0f 85 32 07 00 00    	jne    10108 <_ZN9benchmark22RunSpecifiedBenchmarksEPNS_17BenchmarkReporterES1_+0x1be8>
    f9d6:	48 8b bd f8 f9 ff ff 	mov    -0x608(%rbp),%rdi
    f9dd:	e8 6e c3 ff ff       	callq  bd50 <_ZNSt18condition_variableD1Ev@plt>
    f9e2:	48 8b bd d8 f9 ff ff 	mov    -0x628(%rbp),%rdi
    f9e9:	e8 62 c3 ff ff       	callq  bd50 <_ZNSt18condition_variableD1Ev@plt>
    f9ee:	4c 8b ab 88 00 00 00 	mov    0x88(%rbx),%r13
    f9f5:	4c 8b b5 f0 f9 ff ff 	mov    -0x610(%rbp),%r14
    f9fc:	4d 85 ed             	test   %r13,%r13
    f9ff:	74 44                	je     fa45 <_ZN9benchmark22RunSpecifiedBenchmarksEPNS_17BenchmarkReporterES1_+0x1525>
    fa01:	49 8b 75 18          	mov    0x18(%r13),%rsi
    fa05:	4c 89 f7             	mov    %r14,%rdi
    fa08:	e8 83 22 00 00       	callq  11c90 <_ZNSt8_Rb_treeINSt7__cxx1112basic_stringIcSt11char_traitsIcESaIcEEESt4pairIKS5_N9benchmark7CounterEESt10_Select1stISA_ESt4lessIS5_ESaISA_EE8_M_eraseEPSt13_Rb_tree_nodeISA_E>
    fa0d:	49 8b 7d 20          	mov    0x20(%r13),%rdi
    fa11:	49 8d 45 30          	lea    0x30(%r13),%rax
    fa15:	4d 8b 65 10          	mov    0x10(%r13),%r12
    fa19:	48 39 c7             	cmp    %rax,%rdi
    fa1c:	74 1a                	je     fa38 <_ZN9benchmark22RunSpecifiedBenchmarksEPNS_17BenchmarkReporterES1_+0x1518>
    fa1e:	e8 7d bf ff ff       	callq  b9a0 <_ZdlPv@plt>
    fa23:	4c 89 ef             	mov    %r13,%rdi
    fa26:	e8 75 bf ff ff       	callq  b9a0 <_ZdlPv@plt>
    fa2b:	4d 85 e4             	test   %r12,%r12
    fa2e:	74 15                	je     fa45 <_ZN9benchmark22RunSpecifiedBenchmarksEPNS_17BenchmarkReporterES1_+0x1525>
    fa30:	4d 89 e5             	mov    %r12,%r13
    fa33:	eb cc                	jmp    fa01 <_ZN9benchmark22RunSpecifiedBenchmarksEPNS_17BenchmarkReporterES1_+0x14e1>
    fa35:	0f 1f 00             	nopl   (%rax)
    fa38:	4c 89 ef             	mov    %r13,%rdi
    fa3b:	e8 60 bf ff ff       	callq  b9a0 <_ZdlPv@plt>
    fa40:	4d 85 e4             	test   %r12,%r12
    fa43:	75 eb                	jne    fa30 <_ZN9benchmark22RunSpecifiedBenchmarksEPNS_17BenchmarkReporterES1_+0x1510>
    fa45:	48 8b 7b 50          	mov    0x50(%rbx),%rdi
    fa49:	48 39 bd c8 f9 ff ff 	cmp    %rdi,-0x638(%rbp)
    fa50:	74 05                	je     fa57 <_ZN9benchmark22RunSpecifiedBenchmarksEPNS_17BenchmarkReporterES1_+0x1537>
    fa52:	e8 49 bf ff ff       	callq  b9a0 <_ZdlPv@plt>
    fa57:	48 8b 7b 30          	mov    0x30(%rbx),%rdi
    fa5b:	48 39 bd d0 f9 ff ff 	cmp    %rdi,-0x630(%rbp)
    fa62:	74 05                	je     fa69 <_ZN9benchmark22RunSpecifiedBenchmarksEPNS_17BenchmarkReporterES1_+0x1549>
    fa64:	e8 37 bf ff ff       	callq  b9a0 <_ZdlPv@plt>
    fa69:	48 89 df             	mov    %rbx,%rdi
    fa6c:	e8 2f bf ff ff       	callq  b9a0 <_ZdlPv@plt>
    fa71:	48 8b 85 18 fa ff ff 	mov    -0x5e8(%rbp),%rax
    fa78:	66 0f ef c9          	pxor   %xmm1,%xmm1
    fa7c:	f2 0f 10 85 10 fc ff 	movsd  -0x3f0(%rbp),%xmm0
    fa83:	ff 
    fa84:	83 3d 0d 03 24 00 01 	cmpl   $0x1,0x24030d(%rip)        # 24fd98 <_ZZN9benchmark8internal8LogLevelEvE9log_level>
    fa8b:	f2 0f 2a 88 b0 00 00 	cvtsi2sdl 0xb0(%rax),%xmm1
    fa92:	00 
    fa93:	f2 0f 5e c1          	divsd  %xmm1,%xmm0
    fa97:	f2 0f 11 85 10 fc ff 	movsd  %xmm0,-0x3f0(%rbp)
    fa9e:	ff 
    fa9f:	f2 0f 10 85 20 fc ff 	movsd  -0x3e0(%rbp),%xmm0
    faa6:	ff 
    faa7:	f2 0f 5e c1          	divsd  %xmm1,%xmm0
    faab:	f2 0f 11 85 20 fc ff 	movsd  %xmm0,-0x3e0(%rbp)
    fab2:	ff 
    fab3:	0f 8e f7 05 00 00    	jle    100b0 <_ZN9benchmark22RunSpecifiedBenchmarksEPNS_17BenchmarkReporterES1_+0x1b90>
    fab9:	0f b6 05 b8 02 24 00 	movzbl 0x2402b8(%rip),%eax        # 24fd78 <_ZGVZN9benchmark8internal19GetErrorLogInstanceEvE3log>
    fac0:	84 c0                	test   %al,%al
    fac2:	0f 84 b8 06 00 00    	je     10180 <_ZN9benchmark22RunSpecifiedBenchmarksEPNS_17BenchmarkReporterES1_+0x1c60>
    fac8:	48 8d 1d b1 02 24 00 	lea    0x2402b1(%rip),%rbx        # 24fd80 <_ZZN9benchmark8internal19GetErrorLogInstanceEvE3log>
    facf:	48 8b 3b             	mov    (%rbx),%rdi
    fad2:	48 85 ff             	test   %rdi,%rdi
    fad5:	0f 84 b9 00 00 00    	je     fb94 <_ZN9benchmark22RunSpecifiedBenchmarksEPNS_17BenchmarkReporterES1_+0x1674>
    fadb:	48 8d 35 d2 43 03 00 	lea    0x343d2(%rip),%rsi        # 43eb4 <_ZTSFvPKvRKN8dyntrace6tracer4regsEE+0x144>
    fae2:	ba 07 00 00 00       	mov    $0x7,%edx
    fae7:	e8 74 bf ff ff       	callq  ba60 <_ZSt16__ostream_insertIcSt11char_traitsIcEERSt13basic_ostreamIT_T0_ES6_PKS3_l@plt>
    faec:	48 8b 3b             	mov    (%rbx),%rdi
    faef:	48 85 ff             	test   %rdi,%rdi
    faf2:	0f 84 9c 00 00 00    	je     fb94 <_ZN9benchmark22RunSpecifiedBenchmarksEPNS_17BenchmarkReporterES1_+0x1674>
    faf8:	be 02 00 00 00       	mov    $0x2,%esi
    fafd:	e8 ee c1 ff ff       	callq  bcf0 <_ZNSolsEi@plt>
    fb02:	48 8b 3b             	mov    (%rbx),%rdi
    fb05:	48 85 ff             	test   %rdi,%rdi
    fb08:	0f 84 86 00 00 00    	je     fb94 <_ZN9benchmark22RunSpecifiedBenchmarksEPNS_17BenchmarkReporterES1_+0x1674>
    fb0e:	48 8d 35 a7 43 03 00 	lea    0x343a7(%rip),%rsi        # 43ebc <_ZTSFvPKvRKN8dyntrace6tracer4regsEE+0x14c>
    fb15:	ba 03 00 00 00       	mov    $0x3,%edx
    fb1a:	e8 41 bf ff ff       	callq  ba60 <_ZSt16__ostream_insertIcSt11char_traitsIcEERSt13basic_ostreamIT_T0_ES6_PKS3_l@plt>
    fb1f:	48 8b 3b             	mov    (%rbx),%rdi
    fb22:	48 85 ff             	test   %rdi,%rdi
    fb25:	74 6d                	je     fb94 <_ZN9benchmark22RunSpecifiedBenchmarksEPNS_17BenchmarkReporterES1_+0x1674>
    fb27:	48 8d 35 a1 43 03 00 	lea    0x343a1(%rip),%rsi        # 43ecf <_ZTSFvPKvRKN8dyntrace6tracer4regsEE+0x15f>
    fb2e:	ba 07 00 00 00       	mov    $0x7,%edx
